(lp1
S'1300 on Filmore, 1300 Fillmore St, San Francisco, CA, 94115'
p2
aS'1760, 1760 Polk St, San Francisco, CA, 94109'
p3
aS'18th Hour Cafe, 3674 18th St, San Francisco, CA, 94110'
p4
aS'20 Spot (Twenty Spot), 3565 20th St, San Francisco, CA, 94110'
p5
aS'21st Amendment Brewery Cafe, 563 2nd St, San Francisco, CA, 94107'
p6
aS'398 Restaurant & Bar, 398 Geary St, San Francisco, CA, 94102'
p7
aS'3rd Street Grill, 695 3rd St, San Francisco, CA, 94107'
p8
aS'4505 Burgers & BBQ, 705 Divisadero St, San Francisco, CA, 94117'
p9
aS'4505 Meats, Location Varies, San Francisco, CA, 94110'
p10
aS'456 Deli & Cafe, 456 Montgomery St, San Francisco, CA, 94104'
p11
aS'A Table, 101 Spear St, San Francisco, CA, 94105'
p12
aS'ABC Bakery Cafe, 2500 Noriega St, San Francisco, CA, 94122'
p13
aS'ABC Bakery Cafe, 650 Jackson St, San Francisco, CA, 94108'
p14
aS'AG Ferrari Foods, 3490 California St, San Francisco, CA, 94118'
p15
aS'AG Ferrari Foods, 688 Mission St, San Francisco, CA, 94105'
p16
aS'AK Subs, 397 8th St, San Francisco, CA, 94103'
p17
aS'AQ, 1085 Mission St, San Francisco, CA, 94103'
p18
aS'Absinthe, 398 Hayes St, San Francisco, CA, 94102'
p19
aS'Akiba, 3141 Clement St, San Francisco, CA, 94121'
p20
aS'Alamo Square Seafood Grill, 803 Fillmore St, San Francisco, CA, 94117'
p21
aS"Alfred's Steakhouse, 659 Merchant St, San Francisco, CA, 94111"
p22
aS'Alibi, 142 Minna St, San Francisco, CA, 94105'
p23
aS'Aliment, 786 Bush St, San Francisco, CA, 94108'
p24
aS'Alimento, 507 Columbus Ave, San Francisco, CA, 94133'
p25
aS'All Star Cafe, 550 Market St, San Francisco, CA, 94104'
p26
aS'Allstar Donuts & Burgers, 290 Golden Gate Ave, San Francisco, CA, 94102'
p27
aS'Alta CA, 1420 Market St, San Francisco, CA, 94103'
p28
aS'Ame, 689 Mission St, San Francisco, CA, 94105'
p29
aS'Amelie, 1754 Polk St, San Francisco, CA, 94109'
p30
aS'American Cafe , 955 Market Street, San Francisco, CA, 94103'
p31
aS'American Cupcake, 1919 Union St, San Francisco, CA, 94123'
p32
aS'American Eatery, Ferry Plaza, San Francisco, CA, 94111'
p33
aS"Anabelle's Bar & Bistro, 68 4th St, San Francisco, CA, 94103"
p34
aS'Anchor & Hope, 83 Minna St, San Francisco, CA, 94105'
p35
aS'Andersen Bakery, 665 Market St, San Francisco, CA, 94105'
p36
aS"Andronico's Deli & Market, 1200 Irving St, San Francisco, CA, 94122"
p37
aS"Angelina's Cafe & Deli, 6000 California St, San Francisco, CA, 94121"
p38
aS"Anna's Teriyaki, 83 9th St, San Francisco, CA, 94103"
p39
aS"Annabelle's Bar & Bistro, 68 4th St, San Francisco, CA, 94103"
p40
aS"Annie's Hot Dogs & Pretzels, 899 Market St, San Francisco, CA, 94105"
p41
aS"Applebee's, 2770 Taylor St, San Francisco, CA, 94133"
p42
aS'Aquitaine, 175 Sutter St, San Francisco, CA, 94104'
p43
aS'Aracely, 1201 8th St, San Francisco, CA, 94107'
p44
aS"Arby's, 1581 Sloat Blvd, San Francisco, CA, 94132"
p45
aS'Archive Bar & Kitchen, 602 Mission St, San Francisco, CA, 94105'
p46
aS'Arguello Super Market, 782 Arguello Blvd, San Francisco, CA, 94118'
p47
aS"Art's Cafe, 747 Irving St, San Francisco, CA, 94122"
p48
aS'Atlas Cafe, 3049 20th St, San Francisco, CA, 94110'
p49
aS'Aurea, 905 California St, San Francisco, CA, 94108'
p50
aS"Avedano's, 237 Cortland Ave, San Francisco, CA, 94110"
p51
aS'B Restaurant and Bar, 720 Howard St, San Francisco, CA, 94103'
p52
aS'B Star, 410 Cortland Ave, San Francisco, CA, 94110'
p53
aS'BIX, 56 Gold St, San Francisco, CA, 94133'
p54
aS'Baby Blues BBQ, 3149 Mission St, San Francisco, CA, 94110'
p55
aS'Bacon Bacon, 205 A Frederick St, San Francisco, CA, 94117'
p56
aS'Baker Street Bistro, 2953 Baker St, San Francisco, CA, 94123'
p57
aS'Balancoire, 2565 Mission St, San Francisco, CA, 94110'
p58
aS'Balboa Cafe, 3199 Fillmore St, San Francisco, CA, 94123'
p59
aS'Balcony Bar at Sundance Kabuki Cinema, 1865 Post St, San Francisco, CA, 94115'
p60
aS'Bar 333 & Bistro, 333 Battery St, San Francisco, CA, 94111'
p61
aS'Bar 888, 888 Howard St, San Francisco, CA, 94103'
p62
aS'Bar Agricole, 355 11th St, San Francisco, CA, 94103'
p63
aS'Bar Jules, 609 Hayes St, San Francisco, CA, 94102'
p64
aS'Bar Tartine, 561 Valencia St, San Francisco, CA, 94110'
p65
aS"Barney's Gourmet Hamburgers, 3344 Steiner St, San Francisco, CA, 94123"
p66
aS"Barney's Gourmet Hamburgers, 4138 24th St, San Francisco, CA, 94114"
p67
aS'Bartlett Hall, 242 OFarrell St, San Francisco, CA, 94102'
p68
aS'Baskin-Robbins, 1539 Sloat Blvd, San Francisco, CA, 94132'
p69
aS'Baskin-Robbins, 2250 Irving St, San Francisco, CA, 94122'
p70
aS'Bay Watch Restaurant, 2150 Lombard St, San Francisco, CA, 94123'
p71
aS'Beach Chalet, 1000 Great Hwy, San Francisco, CA, 94121'
p72
aS'Beach Street Grill, 380 Beach St, San Francisco, CA, 94133'
p73
aS'Beachside, 4300 Judah St, San Francisco, CA, 94122'
p74
aS'Bean Bag Cafe, 601 Divisadero St, San Francisco, CA, 94117'
p75
aS'Beautifull, 3401 California St, San Francisco, CA, 94118'
p76
aS"Bechelli's Flower Market Cafe, 698 Brannan St, San Francisco, CA, 94107"
p77
aS"Beep's Burgers, 1051 Ocean Ave, San Francisco, CA, 94112"
p78
aS'Belly Burgers, 5740 Geary Blvd, San Francisco, CA, 94121'
p79
aS'Belmar - La Gallinita, 2989 24th St, San Francisco, CA, 94110'
p80
aS"Ben & Jerry's, 79 Jefferson St, San Francisco, CA, 94133"
p81
aS"Bender's Bar & Grill, 806 S Van Ness Ave, San Francisco, CA, 94110"
p82
aS'Bergerac, 316 11th St, San Francisco, CA, 94103'
p83
aS'Bernal Star, 410 Cortland Ave, San Francisco, CA, 94110'
p84
aS'Bi-Rite Market, 3639 18th St, San Francisco, CA, 94110'
p85
aS'Bi-Rite Market, 550 Divisadero St, San Francisco, CA, 94117'
p86
aS'Biergarten, 424 Octavia Blvd, San Francisco, CA, 94102'
p87
aS'Big 4 ( Big Four), 1075 California St, San Francisco, CA, 94108'
p88
aS"Big Chef Tom's Belly Burgers, 1550 Howard St, San Francisco, CA, 94103"
p89
aS'Big Mouth Burgers, 3392 24th St, San Francisco, CA, 94110'
p90
aS"Bill's Place, 2315 Clement St, San Francisco, CA, 94121"
p91
aS'Bin 38, 3232 Scott St, San Francisco, CA, 94123'
p92
aS'Bin 55, 780 Mission St, San Francisco, CA, 94103'
p93
aS'Bisou, 2367 Market St, San Francisco, CA, 94114'
p94
aS'Bistro 10UN, 1130 Market St, San Francisco, CA, 94102'
p95
aS'Bistro Aix, 3340 Steiner St, San Francisco, CA, 94123'
p96
aS'Bistro Boudin, 160 Jefferson St, San Francisco, CA, 94133'
p97
aS'Bistro Burger, 201 Mission St, San Francisco, CA, 94105'
p98
aS'Bistro Burger, 333 Bush St, San Francisco, CA, 94104'
p99
aS'Bistro Burger, 343 Sansome St, San Francisco, CA, 94104'
p100
aS'Bistro Burger, 845 Market St, San Francisco, CA, 94103'
p101
aS'Bistro Central Parc, 560 Central Ave, San Francisco, CA, 94117'
p102
aS'Bistro Gambrinus, 1813 Fulton St, San Francisco, CA, 94117'
p103
aS"Bistro L'Aviateur, 2850 21st St, San Francisco, CA, 94110"
p104
aS'Bistro SF Grill, 2819 California St, San Francisco, CA, 94115'
p105
aS'Blackpoint Cafe, 882 North Point St, San Francisco, CA, 94109'
p106
aS'Blu Restaurant and Cafe, 747 Market St, San Francisco, CA, 94103'
p107
aS'Blue Front Cafe, 1430 Haight St, San Francisco, CA, 94117'
p108
aS'Blueprint Tap Room, 680 8th St, San Francisco, CA, 94103'
p109
aS'Blush Wine Bar, 476 Castro St, San Francisco, CA, 94114'
p110
aS'Boccalone, Ferry Plaza, San Francisco, CA, 94111'
p111
aS'Bonanza Restaurant, 16 Toland St, San Francisco, CA, 94124'
p112
aS'Boogaloos, 3296 22nd St, San Francisco, CA, 94110'
p113
aS'Boston Market, 2300 16th St, San Francisco, CA, 94103'
p114
aS'Bouche, 603 Bush St, San Francisco, CA, 94108'
p115
aS'Boudin Bakery, 25 Van Ness Ave, San Francisco, CA, 94102'
p116
aS'Boudin Bakery, Pier 39, Space 5-Q, San Francisco, CA, 94133'
p117
aS'Boudin Sourdough Bakery & Cafe, 160 Jefferson St, San Francisco, CA, 94133'
p118
aS'Boudin Sourdough Bakery & Cafe, 19th Ave & Winston St, San Francisco, CA, 94103'
p119
aS'Boudin Sourdough Bakery & Cafe, 399 10th Ave, San Francisco, CA, 94118'
p120
aS'Boudin Sourdough Bakery & Cafe, 4 Embarcadero Ctr, San Francisco, CA, 94111'
p121
aS'Boulevard, 1 Mission St, San Francisco, CA, 94105'
p122
aS'Brannan Street Cafe, 274 Brannan St, San Francisco, CA, 94107'
p123
aS'Brasserie S&P, 222 Sansome St, San Francisco, CA, 94104'
p124
aS'Bravo Pizza, 5145 Mission St, San Francisco, CA, 94112'
p125
aS"Brenda's French Soul Food, 652 Polk St, San Francisco, CA, 94102"
p126
aS'Broadway Dim Sum, 684 Broadway, San Francisco, CA, 94133'
p127
aS'Broadway Pizza, 448 Broadway, San Francisco, CA, 94133'
p128
aS'Broken Record, 1166 Geneva Ave, San Francisco, CA, 94112'
p129
aS"Bruno's, 2389 Mission St, San Francisco, CA, 94110"
p130
aS'Buckhorn Grill, 101 4th St, San Francisco, CA, 94103'
p131
aS'Buckhorn Grill, 4 Embarcadero Ctr, San Francisco, CA, 94111'
p132
aS'Buckhorn Grill, 4 Perry St, San Francisco, CA, 94107'
p133
aS'Buckhorn Grill, 865 Market St, San Francisco, CA, 94103'
p134
aS'Buffalo Burgers, 5317 Geary Blvd, San Francisco, CA, 94121'
p135
aS'Bullshead, 840 Ulloa St, San Francisco, CA, 94127'
p136
aS'Burger Bar, 251 Geary St, San Francisco, CA, 94102'
p137
aS'Burger Gourmet, 101 Spear St, San Francisco, CA, 94105'
p138
aS'Burger House, 237 Powell St, San Francisco, CA, 94102'
p139
aS'Burger Joint, 807 Valencia St, San Francisco, CA, 94110'
p140
aS'Burger King, 1298 Howard St, San Francisco, CA, 94103'
p141
aS'Burger King, 1690 Valencia St, San Francisco, CA, 94110'
p142
aS'Burger King, 1701 Fillmore St, San Francisco, CA, 94115'
p143
aS'Burger King, 245 Bay Shore Blvd, San Francisco, CA, 94124'
p144
aS'Burger King, 25 Van Ness Ave, San Francisco, CA, 94102'
p145
aS'Burger King, 2739 Taylor St, San Francisco, CA, 94133'
p146
aS'Burger King, 2978 16th St, San Francisco, CA, 94103'
p147
aS'Burger King, 35 Powell St, San Francisco, CA, 94102'
p148
aS'Burger King, 360 Bay St, San Francisco, CA, 94133'
p149
aS'Burger King, 3900 Geary Blvd, San Francisco, CA, 94118'
p150
aS'Burger King, 4780 Mission St, San Francisco, CA, 94112'
p151
aS'Burger King, 724 La Playa St, San Francisco, CA, 94121'
p152
aS'Burger King, 819 Van Ness Ave, San Francisco, CA, 94109'
p153
aS'Burger Urge, 1599 Haight St, San Francisco, CA, 94117'
p154
aS'Burgermeister, 138 Church St, San Francisco, CA, 94114'
p155
aS'Burgermeister, 759 Columbus Ave, San Francisco, CA, 94133'
p156
aS'Burgermeister, 86 Carl St, San Francisco, CA, 94117'
p157
aS'CDXX, 5800 3rd Street, San Francisco, CA, 94124'
p158
aS'Cable Car Cafe, 519 Powell St, San Francisco, CA, 94108'
p159
aS'Cable Car City Pub & Cafe, 1 Hallidie Plz, San Francisco, CA, 94102'
p160
aS"Caesar's Cafe & Crepes, 208 Valencia St, San Francisco, CA, 94103"
p161
aS'Cafe Andree, 526 Sutter St, San Francisco, CA, 94102'
p162
aS'Cafe Bello, 2885 Diamond St, San Francisco, CA, 94131'
p163
aS'Cafe Benally, 1131 Taraval St, San Francisco, CA, 94116'
p164
aS'Cafe Bistro (Nordstroms), 865 Market St, San Francisco, CA, 94103'
p165
aS'Cafe Claude, 7 Claude Ln, San Francisco, CA, 94108'
p166
aS'Cafe Claude Marina, 2120 Greenwich St, San Francisco, CA, 94123'
p167
aS'Cafe Du Soleil, 345 3rd St, San Francisco, CA, 94107'
p168
aS'Cafe Encore, 488 Post St, San Francisco, CA, 94102'
p169
aS'Cafe Europa, 4318 California St, San Francisco, CA, 94118'
p170
aS'Cafe Flore, 2298 Market St, San Francisco, CA, 94114'
p171
aS'Cafe Francisco, 2161 Powell St, San Francisco, CA, 94133'
p172
aS'Cafe GoLo, 1602 Lombard St, San Francisco, CA, 94123'
p173
aS'Cafe Jacqueline, 1454 Grant Ave, San Francisco, CA, 94133'
p174
aS'Cafe La Taza, 2475 Mission St, San Francisco, CA, 94110'
p175
aS'Cafe Leah, 25 Beale St, San Francisco, CA, 94105'
p176
aS'Cafe Leah 2, 77 Beale St, San Francisco, CA, 94105'
p177
aS'Cafe Lombard, 1424 Lombard St, San Francisco, CA, 94123'
p178
aS'Cafe Med, 201 Pine St, San Francisco, CA, 94104'
p179
aS'Cafe Meuse, 1400 Pacific Ave, San Francisco, CA, 94109'
p180
aS'Cafe Phoenix, 1234 Indiana St, San Francisco, CA, 94107'
p181
aS'Cafe Playfield, 1 Zoo Rd, San Francisco, CA, 94132'
p182
aS'Cafe Rain Tree, 118 West Portal Ave, San Francisco, CA, 94127'
p183
aS'Cafe Rain Tree, 654 Irving St, San Francisco, CA, 94122'
p184
aS'Cafe Taboo, 600 York St, San Francisco, CA, 94110'
p185
aS'Cafe Zazo, 64 14th St, San Francisco, CA, 94103'
p186
aS'Cafe Zoet, 520 Leavenworth St, San Francisco, CA, 94109'
p187
aS'Cafe at the Opera, 301 Van Ness Avenue, San Francisco, CA, 94102'
p188
aS'Cafe de la Presse, 352 Grant Ave, San Francisco, CA, 94108'
p189
aS'Caffe Museo, 151 3rd St, San Francisco, CA, 94103'
p190
aS'Caffe Union, 1830 Union St, San Francisco, CA, 94123'
p191
aS'Calibur, 68 W Portal Ave, San Francisco, CA, 94127'
p192
aS'California Crisp, 3251 20th Ave, San Francisco, CA, 94132'
p193
aS'Campton Place, 340 Stockton St, San Francisco, CA, 94108'
p194
aS'Careme 350, 350 Rhode Island St, San Francisco, CA, 94103'
p195
aS"Carl's Jr., 1 Hallidie Plz, San Francisco, CA, 94102"
p196
aS"Carl's Jr., 10 United Nations Plz, San Francisco, CA, 94102"
p197
aS"Carl's Jr., 4 Embarcadero Ctr, San Francisco, CA, 94111"
p198
aS'Cassava Bakery & Cafe, 3519 Balboa St, San Francisco, CA, 94121'
p199
aS'Castagna, 2015 Chestnut St, San Francisco, CA, 94123'
p200
aS"Causwell's, 2346 Chestnut St, San Francisco, CA, 94123"
p201
aS'Cefiore, 59 New Montgomery St, San Francisco, CA, 94105'
p202
aS'Central Kitchen, 3000 20th St, San Francisco, CA, 94110'
p203
aS'Chambers Eat & Drink, 601 Eddy St, San Francisco, CA, 94109'
p204
aS'Chapeau!, 126 Clement St, San Francisco, CA, 94118'
p205
aS"Charlie's Deli Cafe, 3202 Folsom St, San Francisco, CA, 94117"
p206
aS'Chaya Brasserie, 132 The Embarcadero, San Francisco, CA, 94105'
p207
aS'Cheese Plus, 2001 Polk St, San Francisco, CA, 94109'
p208
aS'Chestnut Diner, 1312 Chestnut St, San Francisco, CA, 94123'
p209
aS'Chez Julien, 100 Bush St, San Francisco, CA, 94104'
p210
aS'Chez Maman, 1453 18th St, San Francisco, CA, 94107'
p211
aS'Chez Maman, 2223 Union St, San Francisco, CA, 94123'
p212
aS'Chez Maman, 401 Gough St, San Francisco, CA, 94102'
p213
aS'Chez Papa, 4 Mint Plz, San Francisco, CA, 94103'
p214
aS'Chiotras, 858 Rhode Island St, San Francisco, CA, 94107'
p215
aS"Chloe's Cafe, 1399 Church St, San Francisco, CA, 94114"
p216
aS'ChouChou, 400 Dewey Blvd, San Francisco, CA, 94116'
p217
aS"Chouquet's, 2500 Washington St, San Francisco, CA, 94115"
p218
aS'Chow Church, 215 Church St, San Francisco, CA, 94114'
p219
aS'Chowder Hut Fresh Grill, 2890 Taylor St, San Francisco, CA, 94133'
p220
aS'Cigar Bar & Grill, 850 Montgomery St, San Francisco, CA, 94133'
p221
aS"Cindy's Market, 2084 Hayes Street, San Francisco, CA, 94117"
p222
aS'Circa, 2001 Chestnut St, San Francisco, CA, 94123'
p223
aS'Citizens Band, 1198 Folsom St, San Francisco, CA, 94103'
p224
aS'City Club of San Francisco, 155 Sansome St, San Francisco, CA, 94104'
p225
aS'City Gourmet, 590 3rd St, San Francisco, CA, 94107'
p226
aS'Citys Choice, 301 5th St, San Francisco, CA, 94107'
p227
aS"Clancey's Market & Deli, 3960 Irving St, San Francisco, CA, 94122"
p228
aS"Clare's, 3505 17th St, San Francisco, CA, 94110"
p229
aS'Claudine, 8 Claude Ln, San Francisco, CA, 94108'
p230
aS'Clement Street Bar & Grill, 708 Clement St, San Francisco, CA, 94118'
p231
aS'Clock Bar, 335 Powell St, San Francisco, CA, 94102'
p232
aS"Cobb's Comedy Club, 915 Columbus Ave, San Francisco, CA, 94133"
p233
aS'Cockscomb, 564 4th St, San Francisco, CA, 94107'
p234
aS'Cocola Bakery & Pastry, 865 Market St, San Francisco, CA, 94103'
p235
aS'Cocotte, 1521 Hyde St, San Francisco, CA, 94109'
p236
aS'Coi, 373 Broadway, San Francisco, CA, 94133'
p237
aS'Commonwealth, 2224 Mission St, San Francisco, CA, 94110'
p238
aS'Community Table, 3200 California St , San Francisco, CA, 94118'
p239
aS'Concordia Argonaut, 1142 Van Ness Ave, San Francisco, CA, 94109'
p240
aS'Continental Cafe & Deli, 845 Howard St, San Francisco, CA, 94103'
p241
aS'Cool Cravings, 1635 Divisadero St, San Francisco, CA, 94115'
p242
aS'Corner Bakery Cafe, 665 Market St, San Francisco, CA, 94105'
p243
aS'Corsagna Deli, 1668 Union St, San Francisco, CA, 94123'
p244
aS'Couchy Potatoes, 1251 20th Ave, San Francisco, CA, 94122'
p245
aS'Cove Cafe, 434 Castro St, San Francisco, CA, 94114'
p246
aS'Cowgirl Creamery Sidekick, Ferry Plaza, San Francisco, CA, 94102'
p247
aS'Crepe Cone by Sophie, 684 King St, San Francisco, CA, 94107'
p248
aS'Crepe Express, 1476 Haight St, San Francisco, CA, 94117'
p249
aS'Crepe La Vie, 1727 Haight St, San Francisco, CA, 94177'
p250
aS'Crepe Madame, 685 Harrison St, San Francisco, CA, 94107'
p251
aS'Crepe O Chocolat, 75 Ofarrell St, San Francisco, CA, 94108'
p252
aS'Crepe Temptations, 2575 Judah St, San Francisco, CA, 94122'
p253
aS'Crepe and Curry, 5 Embarcadero Ctr, San Francisco, CA, 94111'
p254
aS'Creperie Saint Germain, 222 2nd St, San Francisco, CA, 94105'
p255
aS'Creperie Saint-Germain, 555 California St, San Francisco, CA, 94104'
p256
aS'Crepes A Go Go, 350 11th St, San Francisco, CA, 94103'
p257
aS'Crepes On Cole, 100 Carl St, San Francisco, CA, 94117'
p258
aS'Crepes Ooh La La, 1220 Polk St, San Francisco, CA, 94109'
p259
aS'Crepevine, 216 Church St, San Francisco, CA, 94114'
p260
aS'Crepevine, 624 Irving St, San Francisco, CA, 94122'
p261
aS'Crustacean, 1475 Polk St, San Francisco, CA, 94109'
p262
aS'Curbside Cafe, 2417 California St, San Francisco, CA, 94115'
p263
aS'Custom Burger, 121 7th St, San Francisco, CA, 94102'
p264
aS"Cybelle's Front Room, 1385 9th Ave, San Francisco, CA, 94122"
p265
aS"D'urso Italian Delicatessen, 236 Townsend St, San Francisco, CA, 94107"
p266
aS"Da Kine's Hawaiian Bbq, 4808 Mission St, San Francisco, CA, 94112"
p267
aS"Daddy Boy's Pizza, 4524 3rd St, San Francisco, CA, 94124"
p268
aS'Daily Grill, 347 Geary St, San Francisco, CA, 94102'
p269
aS"David's, 474 Geary St, San Francisco, CA, 94102"
p270
aS'De Young Museum Cafe, 50 Hagiwara Tea Garden Dr, San Francisco, CA, 94118'
p271
aS'Dear Mom (Fogcutter), 2700 16th St, San Francisco, CA, 94103'
p272
aS'Delancey Street, 600 Embarcadero, San Francisco, CA, 94107'
p273
aS'Delessio Market & Bakery, 1695 Market St, San Francisco, CA, 94103'
p274
aS'Deli & ..., 124 Montgomery St, San Francisco, CA, 94104'
p275
aS'Delica, 1 Ferry Plaza, San Francisco, CA, 94111'
p276
aS'Delicioso Creperie, 2948 Folsom St, San Francisco, CA, 94110'
p277
aS'Delish Deli, 752 Van Ness Ave, San Francisco, CA, 94102'
p278
aS"Denny's, 1700 Post St, San Francisco, CA, 94115"
p279
aS"Denny's, 495 Beach St, San Francisco, CA, 94133"
p280
aS"Denny's, 816 Mission St, San Francisco, CA, 94103"
p281
aS'Diala Pizza 2, 2424 Mission St, San Francisco, CA, 94110'
p282
aS'Diamond Cafe, 751 Diamond St, San Francisco, CA, 94114'
p283
aS"Diller's, 348 Pine St, San Francisco, CA, 94104"
p284
aS'Dirty Habit, 12 4th St, San Francisco, CA, 94103'
p285
aS'Dobbs Ferry, 409 Gough St, San Francisco, CA, 94102'
p286
aS"Doc's Of The Bay, Location Varies, San Francisco, CA, 94123"
p287
aS"Domino's Pizza, 1408 Fillmore St, San Francisco, CA, 94115"
p288
aS"Domino's Pizza, 3116 Noriega St, San Francisco, CA, 94122"
p289
aS"Domino's Pizza, 320 Bay Shore Blvd, San Francisco, CA, 94124"
p290
aS"Domino's Pizza, 5200 Geary Blvd, San Francisco, CA, 94118"
p291
aS"Domino's Pizza, 876 Geary St, San Francisco, CA, 94109"
p292
aS'Double Decker, 465 Grove St, San Francisco, CA, 94102'
p293
aS'Double Play, 2401 16th St, San Francisco, CA, 94103'
p294
aS'Dr. Teeth and the Electric Mayhem, 2323 Mission St, San Francisco, CA, 94110'
p295
aS'Drake, 508 4th St, San Francisco, CA, 94107'
p296
aS'Drumm Liquor & Deli, 15 Drumm St, San Francisco, CA, 94111'
p297
aS'Dusty Buns, Location Varies, San Francisco, CA, 94103'
p298
aS'Dux, 780 Valencia St, San Francisco, CA, 94110'
p299
aS'Eagle Cafe, Pier 39, San Francisco, CA, 94133'
p300
aS'Eat Curbside, 500 Mission St, San Francisco, CA, 94105'
p301
aS'Ebb Tide Cafe, 1500 S Van Ness Ave, San Francisco, CA, 94110'
p302
aS'Eclipse Cafe, 5 Embarcadero Ctr, San Francisco, CA, 94111'
p303
aS'Eden Lounge, 1692 Stockton St, San Francisco, CA, 94133'
p304
aS'Educated Palate, 88 4th St, San Francisco, CA, 94103'
p305
aS'Eleven O One, 1101 Polk St, San Francisco, CA, 94109'
p306
aS"Emo's Cafe, 201 Turk St, San Francisco, CA, 94102"
p307
aS'Eureka, 4063 18th St, San Francisco, CA, 94114'
p308
aS'EuroBistro, Location Varies, San Francisco, CA, 94103'
p309
aS"Eva's Hawaiian Cafe, 731 Clement St, San Francisco, CA, 94118"
p310
aS'Fable, 558 Castro St, San Francisco, CA, 94114'
p311
aS'Farm:Table, 754 Post St, San Francisco, CA, 94109'
p312
aS'Fat Beli Deli, 2598 San Bruno Ave, San Francisco, CA, 94134'
p313
aS'Fat Slice, 1535 Haight St, San Francisco, CA, 94117'
p314
aS'Fatt Dog, 200 Pine St, San Francisco, CA, 94104'
p315
aS'Feed, 215 Fremont, San Francisco, CA, 94105'
p316
aS'Fins On the Hoof, Location Varies, San Francisco, CA, 94103'
p317
aS'Fireburger, 2138 Irving St, San Francisco, CA, 94122'
p318
aS'Firefly, 4288 24th St, San Francisco, CA, 94114'
p319
aS'Firewood Cafe, 4248 18th St, San Francisco, CA, 94114'
p320
aS'First Crush, 101 Cyril Magnin St, San Francisco, CA, 94102'
p321
aS'Fish & Farm, 339 Taylor St, San Francisco, CA, 94102'
p322
aS"Fisherman's Pizzeria, 2800 Leavenworth St, San Francisco, CA, 94133"
p323
aS"Fishermen's Grotto #9, 2847 Taylor St, San Francisco, CA, 94133"
p324
aS'FiveTen Burger, location varies, San Francisco, CA, 94103'
p325
aS'Fleur De Sel, 308 Kearny St, San Francisco, CA, 94108'
p326
aS"Flipper's, 482 Hayes St, San Francisco, CA, 94102"
p327
aS'Flour + Water, 2401 Harrison St, San Francisco, CA, 94110'
p328
aS'Fly Bar And Restaurant, 1085 Sutter St, San Francisco, CA, 94109'
p329
aS'Fog City, 1300 Battery St, San Francisco, CA, 94111'
p330
aS'Forbes Island, Pier 39, San Francisco, CA, 94133'
p331
aS'Fort Mason Market & Deli, 1701 Greenwich St, San Francisco, CA, 94123'
p332
aS'Foundation Cafe, 335 Kearny St, San Francisco, CA, 94108'
p333
aS'Fountain Cafe, 50 Post St, San Francisco, CA, 94104'
p334
aS'Fox Plaza Deli Cafe, 1390 Market St, San Francisco, CA, 94102'
p335
aS'France Delices, Location Varies, San Francisco, CA, 94123'
p336
aS'Frances, 3870 17th St, San Francisco, CA, 94114'
p337
aS'Freddies Sandwiches #2, 1488 Pine St, San Francisco, CA, 94109'
p338
aS'French Creme Brulee, 720 Market St, San Francisco, CA, 94108'
p339
aS'Fresco Pizza & Shawarma, 1338 Polk St, San Francisco, CA, 94109'
p340
aS'Fringale, 570 4th St, San Francisco, CA, 94107'
p341
aS'Frisco Fried, 5176 3rd St, San Francisco, CA, 94124'
p342
aS'Frjtz, 579 Hayes St, San Francisco, CA, 94102'
p343
aS'Frjtz, 590 Valencia St, San Francisco, CA, 94110'
p344
aS'Front Door Cafe, 1 Front St, San Francisco, CA, 94111'
p345
aS'G Food Lounge, Location Varies, San Francisco, CA, 94107'
p346
aS'GS Riverside BBQ, 3751 Geary Blvd, San Francisco, CA, 94118'
p347
aS'Galette 88, 88 Hardie Pl, San Francisco, CA, 94104'
p348
aS'Gallery Cafe, 1200 Mason St, San Francisco, CA, 94108'
p349
aS"Gambino's, One Market Plz, San Francisco, CA, 94105"
p350
aS'Gamine, 2223 Union St, San Francisco, CA, 94123'
p351
aS"Ganim's Deli, 1135 18th St, San Francisco, CA, 94107"
p352
aS'Garcon, 1101 Valencia St, San Francisco, CA, 94110'
p353
aS"Garibaldi's, 347 Presidio Ave, San Francisco, CA, 94115"
p354
aS'Gaspar Brasserie, 185 Sutter St, San Francisco, CA, 94104'
p355
aS'Geneva Steak House, 5130 Mission St, San Francisco, CA, 94112'
p356
aS'Genki Crepes, 330 Clement St, San Francisco, CA, 94118'
p357
aS"George's Zoo, 2560 Sloat Blvd, San Francisco, CA, 94116"
p358
aS'Geppetto, 658 Vallejo St, San Francisco, CA, 94133'
p359
aS'Gestalt Haus, 3159 16th St, San Francisco, CA, 94103'
p360
aS'Globe, 290 Pacific Ave, San Francisco, CA, 94111'
p361
aS"Go Getter's Deli, 100 Gough Street, San Francisco, CA, 94102"
p362
aS'Go Streatery, Location Varies, San Francisco, CA, 94102'
p363
aS'Gold Coast Grill & Catering, 1650 Holloway Ave, San Francisco, CA, 94132'
p364
aS'Golden Gate Indian Cuisine & Pizza, 1388 46th Ave, San Francisco, CA, 94122'
p365
aS'Golden Gate Meat Company, 1 Ferry Building, San Francisco, CA, 94111'
p366
aS'Good Eats Cafe, 200 Pine St, San Francisco, CA, 94104'
p367
aS"Gott's Roadside Tray Gourmet, 1 Ferry Building, San Francisco, CA, 94111"
p368
aS'Grand Seven Food Liquer & Deli, 1740 Cesar Chavez St, San Francisco, CA, 94124'
p369
aS'Green Heart Foods, 3321 20th St, San Francisco, CA, 94110'
p370
aS'Griddle Fresh, 4007 24th St, San Francisco, CA, 94114'
p371
aS'Grub, 758 Valencia St, San Francisco, CA, 94110'
p372
aS'Grubstake, 1525 Pine St, San Francisco, CA, 94109'
p373
aS"Grumpy's American Pub, 125 Vallejo St, San Francisco, CA, 94111"
p374
aS"Guerra's Deli & Meats, 490 Taraval St, San Francisco, CA, 94116"
p375
aS'H20 Cafe, 1330 Polk St, San Francisco, CA, 94109'
p376
aS'Haagen Dazs, 3251 20th Ave, San Francisco, CA, 94132'
p377
aS'Hamburger Haven, 800 Clement St, San Francisco, CA, 94118'
p378
aS'Handy Delicatessen, 1815 Irving St, San Francisco, CA, 94122'
p379
aS"Harris', 2100 Van Ness Ave, San Francisco, CA, 94109"
p380
aS'Harrow, 357 Kearny St, San Francisco, CA, 94108'
p381
aS"Harry Denton's Starlight Room, 450 Powell St, San Francisco, CA, 94102"
p382
aS"Harry's Bar, 2020 Fillmore St, San Francisco, CA, 94115"
p383
aS'Harvest Urban Market, 191 8th St, San Francisco, CA, 94103'
p384
aS"Harvey's, 500 Castro St, San Francisco, CA, 94114"
p385
aS'Hawaii West Bbq, 729 Vallejo St, San Francisco, CA, 94133'
p386
aS'Hawaiian Drive Inn, 2600 San Bruno Ave, San Francisco, CA, 94134'
p387
aS'Hawaiian Drive Inn. #28, 4827 Mission St, San Francisco, CA, 94112'
p388
aS"Hazel's Kitchen, 1331 18th St, San Francisco, CA, 94107"
p389
aS'Heirloom Cafe, 2500 Folsom St, San Francisco, CA, 94110'
p390
aS'Hella Vegan Eats, Location Varies, San Francisco, CA, 94110'
p391
aS'Herbivore, 531 Divisadero St, San Francisco, CA, 94117'
p392
aS'Heyday, 180 Spear St, San Francisco, CA, 94105'
p393
aS'Hi Dive, Pier 28 1/2, San Francisco, CA, 94105'
p394
aS'Hi Tops, 2247 Market St, San Francisco, CA, 94114'
p395
aS'Hillside Supper Club, 300 Precita Ave, San Francisco, CA, 94110'
p396
aS'Hillstone, 1800 Montgomery St, San Francisco, CA, 94111'
p397
aS"Hoffman's, 1000 Guerrero St, San Francisco, CA, 94110"
p398
aS'Hog & Rocks, 3431 19th St, San Francisco, CA, 94110'
p399
aS'Hole in the Wall Pizza, 3244 Scott St, San Francisco, CA, 94123'
p400
aS'Holey Bagel, 3872 24th St, San Francisco, CA, 94114'
p401
aS'Hollow Cow Market, 3165 Steiner St, San Francisco, CA, 94123'
p402
aS'Holy Grill, 659 Townsend St, San Francisco, CA, 94103'
p403
aS'Home Plate, 2274 Lombard St, San Francisco, CA, 94123'
p404
aS'Home Skillet, 1001 Market St, San Francisco, CA, 94103'
p405
aS'Honey Honey Cafe & Crepery, 599 Post St, San Francisco, CA, 94102'
p406
aS'Hopwater Distribution, 850 Bush St, San Francisco, CA, 94108'
p407
aS'Horatius, 350 Kansas St, San Francisco, CA, 94103'
p408
aS'Horizon Restaurant & Lounge, 498 Broadway St, San Francisco, CA, 94133'
p409
aS"Horner's Corner, 1199 Church St, San Francisco, CA, 94114"
p410
aS'House of Bagels, 5030 Geary Blvd, San Francisco, CA, 94118'
p411
aS"Howard's Cafe, 1309 9th Ave, San Francisco, CA, 94122"
p412
aS'Huxley, 846 Geary St, San Francisco, CA, 94109'
p413
aS'IHOP, 200 Beach St, San Francisco, CA, 94133'
p414
aS'In-N-Out Burger, 333 Jefferson St, San Francisco, CA, 94133'
p415
aS'In-N-Out Burger, 333 Jefferson St, San Francisco, CA, 94133'
p416
aS'Indigo, 687 McAllister St, San Francisco, CA, 94102'
p417
aS'Ironside, 680A 2nd St, San Francisco, CA, 94107'
p418
aS'Irving Street Cafe, 716 Irving St, San Francisco, CA, 94122'
p419
aS'Isa, 3324 Steiner St, San Francisco, CA, 94123'
p420
aS"Israel's Strictly Kosher, 675 Victoria St, San Francisco, CA, 94127"
p421
aS"It's A Grind Coffee House, 1800 Polk St, San Francisco, CA, 94109"
p422
aS"It's Top's Coffee Shop, 1801 Market St, San Francisco, CA, 94103"
p423
aS'J & V Restaurant and Catering, 2095 Jerrold Ave, San Francisco, CA, 94124'
p424
aS'J Tu Cafe, 582 Sutter St, San Francisco, CA, 94102'
p425
aS"JB's Place, 1435 17th St, San Francisco, CA, 94107"
p426
aS"Jablow's Meats, 86 2nd St, San Francisco, CA, 94105"
p427
aS'Jack in the Box, 366 Bay Shore Blvd , San Francisco, CA, 94124'
p428
aS'Jack in the Box, 400 Geary St, San Francisco, CA, 94102'
p429
aS'Jack in the Box, 42 1st St, San Francisco, CA, 94105'
p430
aS'Jack in the Box, 4649 Geary Blvd, San Francisco, CA, 94118'
p431
aS'Jack in the Box, 808 Mission St, San Francisco, CA, 94103'
p432
aS'Jacks Cannery Bar, 2801 Leavenworth St, San Francisco, CA, 94133'
p433
aS"Jake's Place, 293 Bayshore Blvd, San Francisco, CA, 94124"
p434
aS'Jamba Juice, 1200 Van Ness Ave, San Francisco, CA, 94109'
p435
aS'Jamba Juice, 2130 Fulton St, San Francisco, CA, 94117'
p436
aS'Jamba Juice, 250 Montgomery St, San Francisco, CA, 94104'
p437
aS'Jamba Juice, 3480 California St, San Francisco, CA, 94118'
p438
aS'Jamba Juice, 70 Mission St, San Francisco, CA, 94105'
p439
aS'Jamber, 858 Folsom St, San Francisco, CA, 94107'
p440
aS'Jardiniere, 300 Grove St, San Francisco, CA, 94102'
p441
aS"Jasmin's Cafe & Deli, 809 Bush St, San Francisco, CA, 94108"
p442
aS"Jasper's Corner Tap & Kitchen, 401 Taylor St, San Francisco, CA, 94102"
p443
aS'Java House, Pier 40, San Francisco, CA, 94107'
p444
aS"Jillian's, 101 4th St, San Francisco, CA, 94103"
p445
aS"Joanie's Happy Days Diner, 1329 Columbus Ave, San Francisco, CA, 94133"
p446
aS"John's Burgers, 1114 Market St, San Francisco, CA, 94102"
p447
aS"John's Grill, 63 Ellis St, San Francisco, CA, 94102"
p448
aS'Johnny Rockets, 81 Jefferson St, San Francisco, CA, 94133'
p449
aS"Johnson's Bar-b-que, 2648 San Bruno Ave, San Francisco, CA, 94134"
p450
aS'Jones, 620 Jones St, San Francisco, CA, 94102'
p451
aS"Judy's Cafe, 2268 Chestnut St, San Francisco, CA, 94123"
p452
aS"Juicey Lucy's, 703 Columbus Ave, San Francisco, CA, 94133"
p453
aS"Juicy Lucy's, 703 Columbus Ave, San Francisco, CA, 94133"
p454
aS'Jump Start Coffee & Grocery, 1192 Guerrero St, San Francisco, CA, 94110'
p455
aS'KFC - Kentucky Fried Chicken, 1150 Taraval St, San Francisco, CA, 94116'
p456
aS'KFC - Kentucky Fried Chicken, 1610 Jerrold Ave, San Francisco, CA, 94124'
p457
aS'KFC - Kentucky Fried Chicken, 1881 Geary Blvd, San Francisco, CA, 94115'
p458
aS'KFC - Kentucky Fried Chicken, 1900 Irving St, San Francisco, CA, 94122'
p459
aS'KFC - Kentucky Fried Chicken, 200 Duboce Ave, San Francisco, CA, 94103'
p460
aS'KFC - Kentucky Fried Chicken, 2040 Ocean Ave, San Francisco, CA, 94127'
p461
aS'KFC - Kentucky Fried Chicken, 2101 Lombard St, San Francisco, CA, 94123'
p462
aS'KFC - Kentucky Fried Chicken, 4150 Geary Blvd, San Francisco, CA, 94118'
p463
aS'KFC - Kentucky Fried Chicken, 4285 Mission St, San Francisco, CA, 94112'
p464
aS'KFC - Kentucky Fried Chicken, 691 Eddy St, San Francisco, CA, 94109'
p465
aS"Kate O'Briens, 579 Howard St, San Francisco, CA, 94105"
p466
aS"Kate's Kitchen, 471 Haight St, San Francisco, CA, 94117"
p467
aS'Keiko a Nob Hill, 1250 Jones St, San Francisco, CA, 94109'
p468
aS"Kenny's Chinese & American, 518 S Van Ness Ave, San Francisco, CA, 94110"
p469
aS'Kezar Bar & Restaurant, 900 Cole St, San Francisco, CA, 94117'
p470
aS'Kinfolk, 903 Cortland Ave, San Francisco, CA, 94110'
p471
aS'King Salame Sandwich Shop, 1926 Lombard Street, San Francisco, CA, 94123'
p472
aS'King of Currywurst, 425 Divisadero St, San Francisco, CA, 94117'
p473
aS'Kitchen Story, 3499 16th St, San Francisco, CA, 94114'
p474
aS'Knuckles Sports Bar & Grill, 555 N Point St, San Francisco, CA, 94133'
p475
aS'L & L Hawaiian BBQ, 312 Kearny St, San Francisco, CA, 94108'
p476
aS"L'Olivier, 465 Davis Ct, San Francisco, CA, 94111"
p477
aS"L'ardoise, 151 Noe St, San Francisco, CA, 94114"
p478
aS'La Bergerie, 4221 Geary Blvd, San Francisco, CA, 94118'
p479
aS'La Boulange, 1266 9th Ave, San Francisco, CA, 94122'
p480
aS'La Boulange, 1909 Union St, San Francisco, CA, 94123'
p481
aS'La Boulange, 2043 Fillmore St, San Francisco, CA, 94115'
p482
aS'La Boulange, 222 Sutter St, San Francisco, CA, 94115'
p483
aS'La Boulange, 3898 24th St, San Francisco, CA, 94114'
p484
aS'La Boulange, 465 California St, San Francisco, CA, 94104'
p485
aS'La Boulange de Columbus, 543 Columbus St, San Francisco, CA, 94133'
p486
aS'La Boulange de Hayes, 500 Hayes St, San Francisco, CA, 94102'
p487
aS'La Boulange de Market, 685 Market St, San Francisco, CA, 94103'
p488
aS'La Boulange du Dome, 845 Market St, San Francisco, CA, 94103'
p489
aS'La Ciudad De Mexico, 200 6th Ave, San Francisco, CA, 94118'
p490
aS'La Folie, 2316 Polk St, San Francisco, CA, 94109'
p491
aS'La Galleria Cafe, 930 Bush St, San Francisco, CA, 94109'
p492
aS'LaLe, 731 Irving St, San Francisco, CA, 94122'
p493
aS'Lafayette Coffee Shop, 611 Larkin St, San Francisco, CA, 94109'
p494
aS'Lagos Pizza, 448 Broadway, San Francisco, CA, 94133'
p495
aS'Lakeside Cafe, 2529 Ocean Ave, San Francisco, CA, 94132'
p496
aS'Larkin Express, 452 Larkin St, San Francisco, CA, 94102'
p497
aS"Larry Flynt's Hustler Club, 1031 Kearny St, San Francisco, CA, 94133"
p498
aS'Last Drop Tavern, 550 Powell St, San Francisco, CA, 94108'
p499
aS'Laszlo Bar, 2526 Mission St, San Francisco, CA, 94110'
p500
aS'Lazy Bear, 3416 19th St, San Francisco, CA, 94110'
p501
aS'Le Central Bistro, 453 Bush St, San Francisco, CA, 94108'
p502
aS'Le Charm, 315 5th St, San Francisco, CA, 94107'
p503
aS'Le Marais Bakery, 2066 Chestnut St, San Francisco, CA, 94123'
p504
aS"Le Petitt's Kitchen, 265 Golden Gate Ave, San Francisco, CA, 94102"
p505
aS'Le Regency, 18 California St, San Francisco, CA, 94111'
p506
aS'Le Zinc, 4063 24th St, San Francisco, CA, 94114'
p507
aS'LeBeau Nob Hill Market, 1263 Leavenworth St, San Francisco, CA, 94109'
p508
aS'Leaping Lemur Cafe, 1 Zoo Rd, San Francisco, CA, 94132'
p509
aS"Lee's, 550 California St, San Francisco, CA, 94104"
p510
aS"Lee's Deli, 117 New Montgomery St, San Francisco, CA, 94105"
p511
aS"Lee's Deli, 222 Front St, San Francisco, CA, 94111"
p512
aS"Lee's Deli, 280 Battery St, San Francisco, CA, 94111"
p513
aS"Lee's Deli, 303 2nd St, San Francisco, CA, 94107"
p514
aS"Lee's Deli, 615 Market St, San Francisco, CA, 94104"
p515
aS"Lefty O'Doul's, 333 Geary St, San Francisco, CA, 94102"
p516
aS'Legion Of Honor Cafe, 100 34th Ave, San Francisco, CA, 94121'
p517
aS'Leland Tea Company, 1416 Bush St, San Francisco, CA, 94109'
p518
aS"Leopold's, 2400 Polk St, San Francisco, CA, 94109"
p519
aS'Les Clos, 234 Townsend St, San Francisco, CA, 94107'
p520
aS'Les Joulins Jazz Bistro, 44 Ellis St, San Francisco, CA, 94102'
p521
aS'Level III, 500 Post St, San Francisco, CA, 94102'
p522
aS'Levi Plaza Cafe, 1155 Battery St, San Francisco, CA, 94111'
p523
aS'Library Bar, 562 Sutter St, San Francisco, CA, 94102'
p524
aS"Lilah Belle's, 1207 Divisadero, San Francisco, CA, 94115"
p525
aS"Lilly's Bar-B-Que, 705 Divisadero St, San Francisco, CA, 94117"
p526
aS'Little Cafe , 955 Market Street, San Francisco, CA, 94103'
p527
aS'Little Griddle, 1400 Market St, San Francisco, CA, 94102'
p528
aS'Little Heaven Deli, 2348 Mission St, San Francisco, CA, 94110'
p529
aS"Little Joe's Pizzeria, 5006 Mission St, San Francisco, CA, 94112"
p530
aS'Little Piglet Cafe, 451 9th St, San Francisco, CA, 94103'
p531
aS'Little Red Riding Truck, Location Varies, San Francisco, CA, 94103'
p532
aS'Little Wok, 2675 Ocean Ave, San Francisco, CA, 94132'
p533
aS'Local, 330 1st St, San Francisco, CA, 94105'
p534
aS"Lori's Diner, 336 Mason St, San Francisco, CA, 94102"
p535
aS"Lori's Diner, 500 Sutter St, San Francisco, CA, 94102"
p536
aS"Lou's Cafe, 5017 Geary Blvd, San Francisco, CA, 94118"
p537
aS"Louie's Bar & Grill, 55 Stevenson St, San Francisco, CA, 94105"
p538
aS"Louis' Restaurant, 902 Point Lobos Ave, San Francisco, CA, 94121"
p539
aS'Louisiana Famous Fried Chicken, 1325 Fillmore St, San Francisco, CA, 94115'
p540
aS'Louisiana Famous Fried Chicken, 6 6th St, San Francisco, CA, 94103'
p541
aS'LuLu, 816 Folsom St, San Francisco, CA, 94107'
p542
aS'Lucca Delicatessen, 2120 Chestnut St, San Francisco, CA, 94123'
p543
aS'Lucca Food Store, 1899 Irving St, San Francisco, CA, 94122'
p544
aS'Luce, 888 Howard St, San Francisco, CA, 94103'
p545
aS'Lucky Strike Lanes, 200 King St, San Francisco, CA, 94107'
p546
aS'Luna Park, 694 Valencia St, San Francisco, CA, 94110'
p547
aS'Luques, 433 Powell St, San Francisco, CA, 94102'
p548
aS'MKT, 757 Market St, San Francisco, CA, 94103'
p549
aS'MaSo, 50 3rd St, San Francisco, CA, 94103'
p550
aS"Mabel's Just For You Cafe, 732 22nd St, San Francisco, CA, 94107"
p551
aS'Machine Coffee & Deli, 1024 Market St, San Francisco, CA, 94103'
p552
aS'Magnolia, 1398 Haight St, San Francisco, CA, 94117'
p553
aS'Mahalo!, 1376 9th Ave, San Francisco, CA, 94122'
p554
aS'Mama Cass, Location Varies, San Francisco, CA, 94158'
p555
aS"Mama's, 1701 Stockton St, San Francisco, CA, 94133"
p556
aS'Manhattan Hub, 343 Sansome St, San Francisco, CA, 94111'
p557
aS'Marble Slab Creamery, 219 King St, San Francisco, CA, 94107'
p558
aS'Marengo, 1980 Union St, San Francisco, CA, 94123'
p559
aS'Marina Deli, 2299 Chestnut St, San Francisco, CA, 94123'
p560
aS'Marina Submarine, 2299 Union St, San Francisco, CA, 94123'
p561
aS'Marius Deli & Cafe, 150 Toland St, San Francisco, CA, 94124'
p562
aS'Market Mayflower & Deli, 985 Bush St, San Francisco, CA, 94109'
p563
aS'Market Street Grill, 1231 Market St, San Francisco, CA, 94103'
p564
aS'Marla Bakery, 3619 Balboa St, San Francisco, CA, 94121'
p565
aS'Marlowe, 500 Brannan St, San Francisco, CA, 94107'
p566
aS'Mars Bar & Restaurant, 798 Brannan St, San Francisco, CA, 94103'
p567
aS'Martin Macks, 1568 Haight St, San Francisco, CA, 94117'
p568
aS"Martita's Kitchen, 2560 Marin St, San Francisco, CA, 94124"
p569
aS'Mason Pacific, 1358 Mason St, San Francisco, CA, 94133'
p570
aS'Maven, 598 Haight St, San Francisco, CA, 94117'
p571
aS"Max's Market, 555 California St, San Francisco, CA, 94104"
p572
aS"Max's Opera Cafe, 601 Van Ness Ave, San Francisco, CA, 94102"
p573
aS'Mayes Oyster House, 1233 Polk St, San Francisco, CA, 94109'
p574
aS"McCormick & Kuleto's, 900 N Point St, San Francisco, CA, 94109"
p575
aS"McDonald's, 1100 Fillmore St, San Francisco, CA, 94115"
p576
aS"McDonald's, 1201 Ocean Ave, San Francisco, CA, 94112"
p577
aS"McDonald's, 145 Jefferson St, San Francisco, CA, 94133"
p578
aS"McDonald's, 1455 Market St, San Francisco, CA, 94103"
p579
aS"McDonald's, 2011 Mission St, San Francisco, CA, 94110"
p580
aS"McDonald's, 235 Front St, San Francisco, CA, 94111"
p581
aS"McDonald's, 255 Winston Dr, San Francisco, CA, 94132"
p582
aS"McDonald's, 2801 Mission St, San Francisco, CA, 94110"
p583
aS"McDonald's, 302 Potrero Ave, San Francisco, CA, 94103"
p584
aS"McDonald's, 345 Bay Shore Blvd, San Francisco, CA, 94124"
p585
aS"McDonald's, 441 Pine St, San Francisco, CA, 94104"
p586
aS"McDonald's, 5411 3rd St, San Francisco, CA, 94124"
p587
aS"McDonald's, 5454 Mission St, San Francisco, CA, 94112"
p588
aS"McDonald's, 575 Market St, San Francisco, CA, 94105"
p589
aS"McDonald's, 600 Van Ness Ave, San Francisco, CA, 94102"
p590
aS"McDonald's, 609 Market St, San Francisco, CA, 94105"
p591
aS"McDonald's, 730 Stanyan St, San Francisco, CA, 94117"
p592
aS"McDonald's, 820 Bryant St, San Francisco, CA, 94103"
p593
aS'Me So Hungry, Location Varies, San Francisco, CA, 94103'
p594
aS'Metro Burger Caffe, 247 Fillmore St, San Francisco, CA, 94117'
p595
aS'Michael Mina, 252 California St, San Francisco, CA, 94111'
p596
aS'Michaelis Food Store, 901 N Point St, San Francisco, CA, 94109'
p597
aS"Miller's East Coast Deli, 1725 Polk St, San Francisco, CA, 94109"
p598
aS'Mission Beach Cafe, 198 Guerrero St, San Francisco, CA, 94103'
p599
aS'Mission Grille, 780 Mission St, San Francisco, CA, 94103'
p600
aS'Mission Rock Resort, 817 Terry Francois Blvd, San Francisco, CA, 94158'
p601
aS"Mission's Kitchen, 2738 Mission St, San Francisco, CA, 94110"
p602
aS"Mo's, 1322 Grant Ave, San Francisco, CA, 94133"
p603
aS"MoMo's, 760 2nd St, San Francisco, CA, 94107"
p604
aS"Monk's Kettle, 3141 16th St, San Francisco, CA, 94110"
p605
aS'Monroe, 473 Broadway, San Francisco, CA, 94133'
p606
aS'Monsieur Benjamin, 451 Gough St, San Francisco, CA, 94102'
p607
aS'Monterey Deli, 499 Monterey Blvd, San Francisco, CA, 94127'
p608
aS'Moolicious, 1 Sansome St, San Francisco, CA, 94105'
p609
aS'Moolicious, 135 4th St, San Francisco, CA, 94103'
p610
aS'Morning Due Cafe, 3698 17th St, San Francisco, CA, 94114'
p611
aS"Morty's Delicatessen, 280 Golden Gate Ave, San Francisco, CA, 94102"
p612
aS'Moscone Pizzadeli, 257 3rd St, San Francisco, CA, 94103'
p613
aS"Moscone's At Saint Francis Place, 689 Folsom St, San Francisco, CA, 94107"
p614
aS'Moscow & Tbilisi Bakery Store, 5540 Geary Blvd, San Francisco, CA, 94121'
p615
aS'Mozzarella Di Bufala, 1529 Fillmore St, San Francisco, CA, 94115'
p616
aS'MrCrave, 655 Ellis Street , San Francisco, CA, 94109'
p617
aS'Muka, 370 Grove St, San Francisco, CA, 94102'
p618
aS"Mum's, 1800 Sutter St, San Francisco, CA, 94115"
p619
aS'Municher, Location Varies, San Francisco, CA, 94124'
p620
aS"Murphy's Deli, 560 Mission St, San Francisco, CA, 94105"
p621
aS'My Corner Cafe, 1500 S Van Ness Ave, San Francisco, CA, 94110'
p622
aS'Mymy Coffee Shop, 1500 California St, San Francisco, CA, 94109'
p623
aS'NY Buffalo Wings, 659 Valencia St, San Francisco, CA, 94110'
p624
aS'New Aux Delices, 1002 Potrero Ave, San Francisco, CA, 94110'
p625
aS'New Village Cafe, 1426 Polk St, San Francisco, CA, 94109'
p626
aS"Nickie's, 466 Haight St, San Francisco, CA, 94117"
p627
aS'Nico, 3228 Sacramento St, San Francisco, CA, 94115'
p628
aS'Nob Hill Club, 1 Nob Hill, San Francisco, CA, 94108'
p629
aS'Nob Hill Grille, 969 Hyde St, San Francisco, CA, 94109'
p630
aS'Noeteca, 1551 Dolores St, San Francisco, CA, 94110'
p631
aS'Noir, 581 Hayes St, San Francisco, CA, 94102'
p632
aS'North Beach, 4787 Mission St, San Francisco, CA, 94112'
p633
aS'North Beach Lobster Shack, 532 Green St, San Francisco, CA, 94133'
p634
aS'Nova, 555 2nd St, San Francisco, CA, 94107'
p635
aS'O Izakaya Lounge, 1625 Post St, San Francisco, CA, 94115'
p636
aS'OZ Lounge, 260 Kearny St, San Francisco, CA, 94108'
p637
aS'Old Ship Saloon, 298 Pacific Ave, San Francisco, CA, 94111'
p638
aS'Old Skool Cafe, 1429 Mendell Street, San Francisco, CA, 94124'
p639
aS'Olive, 743 Larkin St, San Francisco, CA, 94109'
p640
aS"Olivia's Fish - Chicken & Gumbo, 4712 3rd St, San Francisco, CA, 94124"
p641
aS'Olympic Flame Cafe, 555 Geary St, San Francisco, CA, 94102'
p642
aS'One Market, 1 Market St, San Francisco, CA, 94105'
p643
aS'One Up, 345 Stockton St, San Francisco, CA, 94108'
p644
aS'Oola, 860 Folsom St, San Francisco, CA, 94107'
p645
aS'Opaque, 689 McAllister St, San Francisco, CA, 94102'
p646
aS'Original Buffalo Wings, 2499 Lombard St, San Francisco, CA, 94123'
p647
aS'Original Ghirardelli Ice Cream & Chocolate Shop, 900 N Point St, San Francisco, CA, 94109'
p648
aS"Orphan Andy's, 3991 17th St, San Francisco, CA, 94114"
p649
aS'Our Court Cafe, 952 Clement St, San Francisco, CA, 94118'
p650
aS"Pal's Takeaway, 3066 24th St, San Francisco, CA, 94110"
p651
aS'Palm Tree Cafe, 1785 Divisadero St, San Francisco, CA, 94115'
p652
aS"Palmer's Tavern, 2298 Fillmore St, San Francisco, CA, 94115"
p653
aS'Panera Bread, 2675 Geary Blvd, San Francisco, CA, 94118'
p654
aS'Panera Bread, 301 King Street, San Francisco, CA, 94158'
p655
aS"Papa John's Pizza, 69 Cambon Dr, San Francisco, CA, 94132"
p656
aS'Paragon, 701 2nd St, San Francisco, CA, 94107'
p657
aS'Parallel 37, 600 Stockton St, San Francisco, CA, 94108'
p658
aS'Paris Pizza and Grill, 448 Broadway, San Francisco, CA, 94133'
p659
aS'Park Chalet, 1000 Great Hwy, San Francisco, CA, 94121'
p660
aS'Park Chow, 1240 9th Ave, San Francisco, CA, 94122'
p661
aS'Park Grill, 333 Battery St, San Francisco, CA, 94111'
p662
aS'Park Tavern, 1652 Stockton St, San Francisco, CA, 94133'
p663
aS'Parkside Tavern, 1940 Taraval St, San Francisco, CA, 94116'
p664
aS"Pat's Cafe, 2230 Taylor St, San Francisco, CA, 94133"
p665
aS"Pat's Cafe, 2330 Taylor St, San Francisco, CA, 94133"
p666
aS"Paul's Deli, 10 Lombard St, San Francisco, CA, 94111"
p667
aS'Pause, 1666 Market St, San Francisco, CA, 94102'
p668
aS"Pearl's Deluxe Burgers, 708 Post St, San Francisco, CA, 94109"
p669
aS'Penthouse Club & Restaurant, 412 Broadway St, San Francisco, CA, 94133'
p670
aS'Per Diem, 43 Sutter St, San Francisco, CA, 94104'
p671
aS'Perfect Hamburger, 601 Geary St, San Francisco, CA, 94102'
p672
aS"Perry's, 155 Steuart St, San Francisco, CA, 94105"
p673
aS"Perry's, 1944 Union St, San Francisco, CA, 94123"
p674
aS"Perry's, SFO International Airport - Terminal 1, San Francisco, CA, 94128"
p675
aS'Pesce, 2227 Polk St, San Francisco, CA, 94109'
p676
aS"Pete's Deli and Cafe, 1661 Divisadero St, San Francisco, CA, 94115"
p677
aS"Peter D's, 2201 Van Ness Ave, San Francisco, CA, 94109"
p678
aS'Petit Cafe, 501 Geary St, San Francisco, CA, 94102'
p679
aS'Phoenix Bar & Irish Gathering Place, 811 Valencia St, San Francisco, CA, 94110'
p680
aS'Pier Market Seafood Restaurant, Pier 39, San Francisco, CA, 94133'
p681
aS'Pinecrest Diner, 401 Geary St, San Francisco, CA, 94102'
p682
aS'Pisces California Cuisine, 3414 Judah St, San Francisco, CA, 94122'
p683
aS'Pizza Hut, 1523 Sloat Blvd, San Francisco, CA, 94132'
p684
aS'Pizza Hut, 3349 Mission St, San Francisco, CA, 94110'
p685
aS'Pizza Hut, 728 Geary St, San Francisco, CA, 94109'
p686
aS'Pizza Joint, 2414 San Bruno Ave, San Francisco, CA, 94134'
p687
aS'Pizza Prada, 239 Powell St, San Francisco, CA, 94102'
p688
aS"Pizza Zone 'N Grill, 178 Valencia St, San Francisco, CA, 94103"
p689
aS'Players, Pier 39, San Francisco, CA, 94133'
p690
aS'Plouf, 40 Belden Pl, San Francisco, CA, 94104'
p691
aS'Plow, 1299 18th St, San Francisco, CA, 94107'
p692
aS"Pluto's, 3258 Scott St, San Francisco, CA, 94123"
p693
aS"Pluto's, 627 Irving St, San Francisco, CA, 94122"
p694
aS"Polker's Gourmet Burgers, 2226 Polk St, San Francisco, CA, 94109"
p695
aS'Polo Grounds, 747 3rd St, San Francisco, CA, 94107'
p696
aS'Pomelo, 1793 Church St, San Francisco, CA, 94131'
p697
aS'Pomelo, 92 Judah St, San Francisco, CA, 94122'
p698
aS'Popeyes Chicken & Biscuits, 1426t Fillmore St, San Francisco, CA, 94115'
p699
aS'Popeyes Chicken & Biscuits, 2598 Mission St, San Francisco, CA, 94110'
p700
aS'Popeyes Chicken & Biscuits, 599 Divisadero St, San Francisco, CA, 94117'
p701
aS'Popeyes Chicken & Biscuits, 890 Geneva Ave, San Francisco, CA, 94112'
p702
aS'Pork Store Cafe, 1451 Haight St, San Francisco, CA, 94117'
p703
aS'Pork Store Cafe, 3122 16th St, San Francisco, CA, 94103'
p704
aS'Portico, 98 1st St, San Francisco, CA, 94105'
p705
aS'Posh Bagel, 4 Perry St, San Francisco, CA, 94107'
p706
aS'Preet Palace, 1109 Fillmore, San Francisco, CA, 94115'
p707
aS'Presidio Cafe, 300 Finley Rd, San Francisco, CA, 94129'
p708
aS'Presidio Social Club, 563 Ruger St, San Francisco, CA, 94129'
p709
aS'Prime Dip, 545A Sansome St, San Francisco, CA, 94115'
p710
aS'Proper Food, 100 1st St, San Francisco, CA, 94105'
p711
aS'Punjab, 2838 24th St, San Francisco, CA, 94110'
p712
aS'Queen Malika, 4416 18 St, San Francisco, CA, 94114'
p713
aS'Quickly, 5301 Mission St, San Francisco, CA, 94112'
p714
aS'Quince, 470 Pacific Ave, San Francisco, CA, 94133'
p715
aS'Quiznos Sub, 110 Bush St, San Francisco, CA, 94104'
p716
aS'Quiznos Sub, 1501 Sloat Blvd, San Francisco, CA, 94132'
p717
aS'Quiznos Sub, 215 Fremont St, San Francisco, CA, 94105'
p718
aS'Quiznos Sub, 28 3rd St, San Francisco, CA, 94103'
p719
aS'Quiznos Sub, 303 2nd St, San Francisco, CA, 94107'
p720
aS'Quiznos Sub, 901 Polk St, San Francisco, CA, 94109'
p721
aS'RN74, 301 Mission St, San Francisco, CA, 94105'
p722
aS'Radish, 3465 19th St, San Francisco, CA, 94110'
p723
aS'Radius, 1123 Folsom St, San Francisco, CA, 94103'
p724
aS'Rainforest Cafe, 145 Jefferson St, San Francisco, CA, 94133'
p725
aS'Red Dog, 303 2nd St, San Francisco, CA, 94107'
p726
aS'Red Door Cafe, 1608 Bush St, San Francisco, CA, 94108'
p727
aS"Red's Java House, Pier 30, San Francisco, CA, 94105"
p728
aS'Redford, 673 Geary St, San Francisco, CA, 94102'
p729
aS'Restaurant Gary Danko, 800 N Point St, San Francisco, CA, 94109'
p730
aS'Restaurant Seven Fifty (750), 750 Kearny St, San Francisco, CA, 94108'
p731
aS"Rhea's Cafe, 2200 Bryant St, San Francisco, CA, 94110"
p732
aS"Rhea's Deli, 800 Valencia St, San Francisco, CA, 94110"
p733
aS'Rich Table, 199 Gough St, San Francisco, CA, 94102'
p734
aS'Rickybobby, 400 Haight St, San Francisco, CA, 94102'
p735
aS'Rigolo, 3465 California St, San Francisco, CA, 94118'
p736
aS"Roady's Longburger, 101 Spear St, San Francisco, CA, 94105"
p737
aS'Roam Artisan Burgers, 1785 Union St, San Francisco, CA, 94123'
p738
aS'Robber Baron, 2032 Polk St, San Francisco, CA, 94109'
p739
aS'Rogue Ales Public House, 673 Union St, San Francisco, CA, 94133'
p740
aS'Rosamunde Sausage Grill, 2832 Mission St, San Francisco, CA, 94110'
p741
aS'Rosamunde Sausage Grill, 545 Haight St, San Francisco, CA, 94117'
p742
aS'Rosenberg Deli and Market, 276 Noe St, San Francisco, CA, 94114'
p743
aS'Rosenburg Deli, 276 Noe St, San Francisco, CA, 94114'
p744
aS"Rossi's Delicatessen, 426 Castro St, San Francisco, CA, 94114"
p745
aS'Rouge et Blanc, 334 Grant Ave, San Francisco, CA, 94108'
p746
aS'Round Table Pizza, 2660 San Bruno Ave, San Francisco, CA, 94134'
p747
aS'Roxanne Cafe, 570 Powell St, San Francisco, CA, 94108'
p748
aS"Rubio's, 865 Market St, San Francisco, CA, 94103"
p749
aS'Ruby Skye, 420 Mason St, San Francisco, CA, 94102'
p750
aS'Rue Lepic, 900 Pine St, San Francisco, CA, 94108'
p751
aS'Rye Project, 180 7th St, San Francisco, CA, 94103'
p752
aS'S & R Lounge, 55 5th St, San Francisco, CA, 94103'
p753
aS"S.F. Preet's Cafe, 995 Market St, San Francisco, CA, 94103"
p754
aS'SPQR, 1911 Fillmore St, San Francisco, CA, 94115'
p755
aS'Saigon Deli Express, 50 Drumm St, San Francisco, CA, 94105'
p756
aS'Salt House, 545 Mission St, San Francisco, CA, 94105'
p757
aS'Salumeria, 1550 Bryant St, San Francisco, CA, 94103'
p758
aS'Salumeria, 3000 20th St, San Francisco, CA, 94110'
p759
aS"Sammy's Gourmet Deli & Cafe, 1356 Van Ness Ave, San Francisco, CA, 94109"
p760
aS"Sammy's on 2nd, 84 2nd St, San Francisco, CA, 94105"
p761
aS'Sauce, 131 Gough St, San Francisco, CA, 94102'
p762
aS'Sauce, 56 Belden Pl, San Francisco, CA, 94104'
p763
aS'Savor, 3913 24th St, San Francisco, CA, 94114'
p764
aS'Sbarro, 3521 20th St, San Francisco, CA, 94110'
p765
aS'Schilling Cafe, 667-669 Commercial St, San Francisco, CA, 94111'
p766
aS"Schmidt's, 2400 Folsom St, San Francisco, CA, 94110"
p767
aS"Schroeder's, 240 Front St, San Francisco, CA, 94111"
p768
aS'Sea Breeze Cafe, 3940 Judah St, San Francisco, CA, 94122'
p769
aS'Seaglass, Pier 15, San Francisco, CA, 94111'
p770
aS'Seal Rock Inn Restaurant, 545 Point Lobos Ave, San Francisco, CA, 94121'
p771
aS'Sears Fine Food, 439 Powell St, San Francisco, CA, 94102'
p772
aS'Sheba Piano Lounge, 1419 Fillmore St, San Francisco, CA, 94115'
p773
aS"Shorty Goldstein's, 126 Sutter St, San Francisco, CA, 94104"
p774
aS'Show Dogs, 1020 Market Street, San Francisco, CA, 94102'
p775
aS'Silver Clouds, 1994 Lombard St, San Francisco, CA, 94123'
p776
aS'Slow Club, 2501 Mariposa St, San Francisco, CA, 94110'
p777
aS'SmashBurger, 2300 16th St, San Francisco, CA, 94103'
p778
aS"Smokin' Warehouse, Location Varies, San Francisco, CA, 94107"
p779
aS'SoMa Inn Cafe, 1082 Folsom St, San Francisco, CA, 94103'
p780
aS'Soccer Cafe, 2797 16th St, San Francisco, CA, 94103'
p781
aS'Social Kitchen & Brewery, 1326 9th Ave, San Francisco, CA, 94122'
p782
aS'Soma Eats, 186 2nd St, San Francisco, CA, 94105'
p783
aS'Sons & Daughters, 708 Bush St, San Francisco, CA, 94108'
p784
aS'Sorrento Delicatessen, 4763 Mission St , San Francisco, CA, 94112'
p785
aS'South End Grill & Bar, 1499 Valencia St, San Francisco, CA, 94110'
p786
aS'South Park Cafe, 108 S Park St, San Francisco, CA, 94107'
p787
aS'Southern Pacific Brewing Company, 620 Treat Ave, San Francisco, CA, 94110'
p788
aS'Sparrow, 1640 Haight St, San Francisco, CA, 94117'
p789
aS'Spinnerie, 1401 Polk St, San Francisco, CA, 94109'
p790
aS'Split Pea Seduction, 138 6th St, San Francisco, CA, 94103'
p791
aS'Spruce, 3640 Sacramento St, San Francisco, CA, 94118'
p792
aS'Squat & Gobble, 2263 Chestnut St, San Francisco, CA, 94123'
p793
aS'Squat & Gobble, 3600 16th St, San Francisco, CA, 94114'
p794
aS'St. Vincent, 1270 Valencia St, San Francisco, CA, 94110'
p795
aS'Stacks, 501 Hayes St, San Francisco, CA, 94102'
p796
aS'Starbelly, 3583 16th St, San Francisco, CA, 94114'
p797
aS'Starbucks Coffee, 100 W Portal Ave, San Francisco, CA, 94127'
p798
aS'Starbucks Coffee, 120 4th St, San Francisco, CA, 94103'
p799
aS'Starbucks Coffee, 1231 Market St, San Francisco, CA, 94103'
p800
aS'Starbucks Coffee, 1255 Battery St, San Francisco, CA, 94111'
p801
aS'Starbucks Coffee, 1298 Howard St, San Francisco, CA, 94103'
p802
aS'Starbucks Coffee, 1390 Market St, San Francisco, CA, 94102'
p803
aS'Starbucks Coffee, 1401 Van Ness Ave, San Francisco, CA, 94109'
p804
aS'Starbucks Coffee, 1501 Fillmore St, San Francisco, CA, 94115'
p805
aS'Starbucks Coffee, 1750 Divisadero St, San Francisco, CA, 94115'
p806
aS'Starbucks Coffee, 1799 Fulton St, San Francisco, CA, 94117'
p807
aS'Starbucks Coffee, 1800 Irving St, San Francisco, CA, 94122'
p808
aS'Starbucks Coffee, 1899 Union St, San Francisco, CA, 94123'
p809
aS'Starbucks Coffee, 201 3rd St, San Francisco, CA, 94103'
p810
aS'Starbucks Coffee, 201 Powell St, San Francisco, CA, 94102'
p811
aS'Starbucks Coffee, 210 Spear St, San Francisco, CA, 94105'
p812
aS'Starbucks Coffee, 2132 Chestnut St, San Francisco, CA, 94123'
p813
aS'Starbucks Coffee, 2165 Polk St, San Francisco, CA, 94109'
p814
aS'Starbucks Coffee, 222 Mason St, San Francisco, CA, 94102'
p815
aS'Starbucks Coffee, 2222 Fillmore St, San Francisco, CA, 94115'
p816
aS'Starbucks Coffee, 2300 16th St, San Francisco, CA, 94103'
p817
aS'Starbucks Coffee, 2435 California St, San Francisco, CA, 94115'
p818
aS'Starbucks Coffee, 27 Drumm St, San Francisco, CA, 94111'
p819
aS'Starbucks Coffee, 2727 Mariposa St, San Francisco, CA, 94110'
p820
aS'Starbucks Coffee, 280 King St, San Francisco, CA, 94107'
p821
aS'Starbucks Coffee, 295 California St, San Francisco, CA, 94111'
p822
aS'Starbucks Coffee, 3251 20th Ave, San Francisco, CA, 94132'
p823
aS'Starbucks Coffee, 350 Parnassus Ave, San Francisco, CA, 94117'
p824
aS'Starbucks Coffee, 359 Grant Ave, San Francisco, CA, 94108'
p825
aS'Starbucks Coffee, 3595 California St, San Francisco, CA, 94118'
p826
aS'Starbucks Coffee, 36 2nd St, San Francisco, CA, 94105'
p827
aS'Starbucks Coffee, 3735 Buchanan St, San Francisco, CA, 94123'
p828
aS'Starbucks Coffee, 390 Stockton St, San Francisco, CA, 94108'
p829
aS'Starbucks Coffee, 398 Market St, San Francisco, CA, 94111'
p830
aS'Starbucks Coffee, 3995 24th St, San Francisco, CA, 94114'
p831
aS'Starbucks Coffee, 4094 18th St, San Francisco, CA, 94114'
p832
aS'Starbucks Coffee, 425 Battery St, San Francisco, CA, 94111'
p833
aS'Starbucks Coffee, 44 Montgomery St, San Francisco, CA, 94104'
p834
aS'Starbucks Coffee, 442 Geary St, San Francisco, CA, 94102'
p835
aS'Starbucks Coffee, 490 Brannan St, San Francisco, CA, 94107'
p836
aS'Starbucks Coffee, 499 Bay St, San Francisco, CA, 94133'
p837
aS'Starbucks Coffee, 52 California St, San Francisco, CA, 94111'
p838
aS'Starbucks Coffee, 5290 Diamond Heights Blvd, San Francisco, CA, 94131'
p839
aS'Starbucks Coffee, 555 California St, San Francisco, CA, 94104'
p840
aS'Starbucks Coffee, 675 Portola Dr, San Francisco, CA, 94127'
p841
aS'Starbucks Coffee, 680 Beach St, San Francisco, CA, 94109'
p842
aS'Starbucks Coffee, 689 Townsend St, San Francisco, CA, 94103'
p843
aS'Starbucks Coffee, 701 Battery St, San Francisco, CA, 94111'
p844
aS'Starbucks Coffee, 74 New Montgomery St, San Francisco, CA, 94105'
p845
aS'Starbucks Coffee, 744 Irving St, San Francisco, CA, 94122'
p846
aS'Starbucks Coffee, 780 Market St, San Francisco, CA, 94102'
p847
aS'Starbucks Coffee, 865 Market St, San Francisco, CA, 94103'
p848
aS'Starbucks Coffee, 99 Jackson St, San Francisco, CA, 94111'
p849
aS'Starvin Marvin, 932 Geneva Ave, San Francisco, CA, 94112'
p850
aS'State Bird Provisions, 1529 Fillmore St, San Francisco, CA, 94115'
p851
aS'Steep Brew, 450 Rhode Island St, San Francisco, CA, 94103'
p852
aS'Steins, 731 Clement St, San Francisco, CA, 94118'
p853
aS'Stem, 499 Illinois St, San Francisco, CA, 94158'
p854
aS'Stock in Trade, 2036 Lombard St, San Francisco, CA, 94123'
p855
aS'Stones Throw, 1896 Hyde St, San Francisco, CA, 94109'
p856
aS'Straw, 203 Octavia Blvd, San Francisco, CA, 94102'
p857
aS'Street, 2141 Polk St, San Francisco, CA, 94109'
p858
aS'Stuffed, 2788 Mission St, San Francisco, CA, 94110'
p859
aS'Subway, 408 Montgomery St., San Francisco, CA, 94104'
p860
aS'Subway, 423 Bush St, San Francisco, CA, 94108'
p861
aS'Subway, 483 Sacramento St, San Francisco, CA, 94104'
p862
aS'Sugar Bowl Bakery, 2238 Geary Blvd, San Francisco, CA, 94115'
p863
aS'Sugar Bowl Bakery, 2623 San Bruno Ave, San Francisco, CA, 94134'
p864
aS'Sunrise Cafe, 1114 Bryant St, San Francisco, CA, 94103'
p865
aS'Super Duper, 2304 Market St, San Francisco, CA, 94114'
p866
aS'Suppenkuche, 525 Laguna St, San Francisco, CA, 94102'
p867
aS'Supperclub, 657 Harrison St, San Francisco, CA, 94107'
p868
aS'Sutter Pub, 700 Sutter St, San Francisco, CA, 94109'
p869
aS'Sweet Woodruff, 798 Sutter St, San Francisco, CA, 94109'
p870
aS'Sweetmue, 3414 22nd St, San Francisco, CA, 94110'
p871
aS"Swensen's, Union Hyde, San Francisco, CA, 94102"
p872
aS"T'Licious Delicatessens, 431 23rd Ave, San Francisco, CA, 94121"
p873
aS"T.G.I. Friday's, 25 Van Ness Ave, San Francisco, CA, 94102"
p874
aS'TAP415, 845 Market St, San Francisco, CA, 94103'
p875
aS'TBD, 1077 Mission St, San Francisco, CA, 94103'
p876
aS'TJ Cafe, 724 La Playa St, San Francisco, CA, 94121'
p877
aS'Tadich Grill, 240 California St, San Francisco, CA, 94111'
p878
aS'Tapioca Express, 1522 Fillmore St, San Francisco, CA, 94115'
p879
aS'Taps, 1516 Broadway, San Francisco, CA, 94111'
p880
aS"Tarantino's Restaurant, 206 Jefferson St, San Francisco, CA, 94133"
p881
aS'Tartine Bakery, 600 Guerrero St, San Francisco, CA, 94110'
p882
aS'Tartine Cafe Francais, 244 Gough St, San Francisco, CA, 94102'
p883
aS'Taverna Aventine, 582 Washington St, San Francisco, CA, 94111'
p884
aS'Teaway, 2250 Irving St, San Francisco, CA, 94122'
p885
aS"Ted's Market, 1530 Howard St, San Francisco, CA, 94103"
p886
aS"Ted's Sports Bar & Grill, 312 Harriet St, San Francisco, CA, 94103"
p887
aS'Tee Off Bar and Grill, 3129 Clement St, San Francisco, CA, 94121'
p888
aS'Tempest, 431 Natoma St, San Francisco, CA, 94103'
p889
aS'Tender, 854 Geary St, San Francisco, CA, 94109'
p890
aS'Tender Greens, 30 Fremont St, San Francisco, CA, 94105'
p891
aS'Tennessee Grill, 1128 Taraval St, San Francisco, CA, 94116'
p892
aS'Terrace Cafe, 1 Zoo Rd, San Francisco, CA, 94132'
p893
aS'The Alembic, 1725 Haight St, San Francisco, CA, 94117'
p894
aS'The American Grilled Cheese Kitchen, 1 South Park, San Francisco, CA, 94107'
p895
aS'The Aveline, 490 Geary St, San Francisco, CA, 94102'
p896
aS'The Bell Tower, 1900 Polk St, San Francisco, CA, 94109'
p897
aS'The Bitter End, 441 Clement St, San Francisco, CA, 94118'
p898
aS'The Blue Plate, 3218 Mission St, San Francisco, CA, 94110'
p899
aS"The Boy's Deli, 2222 Polk St, San Francisco, CA, 94109"
p900
aS'The Brazen Head, 3166 Buchanan St, San Francisco, CA, 94123'
p901
aS'The Brick Yard Restaurant & Bar, 1787 Union St, San Francisco, CA, 94123'
p902
aS'The Bubble Lounge, 714 Montgomery St, San Francisco, CA, 94111'
p903
aS'The Burritt Room + Burritt Tavern, 417 Stockton St, San Francisco, CA, 94108'
p904
aS'The Butler & The Chef Bistro, 155 South Park St, San Francisco, CA, 94107'
p905
aS'The Chameleon, 1299 Pacific Ave, San Francisco, CA, 94109'
p906
aS'The Cheesecake Factory, 251 Geary St, San Francisco, CA, 94102'
p907
aS'The Cliff House Bistro, 1090 Point Lobos Ave, San Francisco, CA, 94121'
p908
aS'The Commissary, 101 Montgomery St, San Francisco, CA, 94129'
p909
aS'The Corner Store, 5 Masonic Ave, San Francisco, CA, 94118'
p910
aS'The Cravery, 829 Mission St, San Francisco, CA, 94103'
p911
aS'The Crepe Cafe, Pier 39, San Francisco, CA, 94133'
p912
aS'The Crepe House, 1132 Valencia St, San Francisco, CA, 94110'
p913
aS'The Crepe House, 1755 Polk St, San Francisco, CA, 94109'
p914
aS'The European, 490 Geary St, San Francisco, CA, 94102'
p915
aS'The Front Room, 1500 California St, San Francisco, CA, 94109'
p916
aS'The Garden Court, 2 New Montgomery St, San Francisco, CA, 94105'
p917
aS'The Great Steak and Potato Company, 3251 20th Ave, San Francisco, CA, 94132'
p918
aS'The Grill, 799 Bryant St, San Francisco, CA, 94107'
p919
aS'The Grind Cafe, 783 Haight St, San Francisco, CA, 94117'
p920
aS'The Grove Cafe Yerba Buena, 690 Mission St, San Francisco, CA, 94105'
p921
aS'The Grove Fillmore, 2016 Fillmore St, San Francisco, CA, 94115'
p922
aS'The Holding Company, 2 Embarcadero Ctr, San Francisco, CA, 94111'
p923
aS'The Italian Homemade Company, 716 Columbus Ave, San Francisco, CA, 94133'
p924
aS'The Jewel Restaurant, 5251 3rd St, San Francisco, CA, 94124'
p925
aS'The Liberties, 998 Guerrero St, San Francisco, CA, 94110'
p926
aS'The Living Room, 181 3rd St, San Francisco, CA, 94105'
p927
aS'The Lost Ladles Cafe, 655 Montgomery St, San Francisco, CA, 94111'
p928
aS'The Matterhorn Swiss Restaurant, 2323 Van Ness Ave, San Francisco, CA, 94109'
p929
aS'The Melt, 115 New Montgomery St, San Francisco, CA, 94105'
p930
aS'The Mortimer, 550 Geary St, San Francisco, CA, 94102'
p931
aS'The Oak Room, 335 Powell St, San Francisco, CA, 94102'
p932
aS'The Pied Piper, 2 New Montgomery St, San Francisco, CA, 94105'
p933
aS'The Plant, Pier 3, Embarcadero, San Francisco, CA, 94111'
p934
aS'The Progress, 1525 Fillmore St, San Francisco, CA, 94115'
p935
aS'The Pub, 851 Beach St, San Francisco, CA, 94133'
p936
aS'The Ramp, 855 Terry Francois St, San Francisco, CA, 94107'
p937
aS'The Rite Spot Cafe, 2099 Folsom St, San Francisco, CA, 94110'
p938
aS'The Rotunda, 150 Stockton St, San Francisco, CA, 94108'
p939
aS'The Royal Exchange, 301 Sacramento St, San Francisco, CA, 94111'
p940
aS'The Royale, 800 Post St, San Francisco, CA, 94109'
p941
aS'The Sandwich Company, 220 Bush St, San Francisco, CA, 94104'
p942
aS'The Seismic Joint, Pier 15, San Francisco, CA, 94111'
p943
aS'The Sentinel, 37 New Montgomery St, San Francisco, CA, 94105'
p944
aS'The Showroom, 1000 Van Ness Ave, San Francisco, CA, 94109'
p945
aS'The Social Study, 1795 Geary St, San Francisco, CA, 94109'
p946
aS'The Square, 1707 Powell St, San Francisco, CA, 94133'
p947
aS'The Taco Guys, Location Varies, San Francisco, CA, 94111'
p948
aS'The Terrace, 55 Music Concourse Dr, San Francisco, CA, 94118'
p949
aS'The Tipsy Pig, 2231 Chestnut St, San Francisco, CA, 94123'
p950
aS'The Tradesman, 753 Alabama St, San Francisco, CA, 94110'
p951
aS'The Vestry, 777 Valencia St, San Francisco, CA, 94110'
p952
aS'The View Cafe, 3333 California St, San Francisco, CA, 94118'
p953
aS'The View Lounge, 780 Mission St, San Francisco, CA, 94103'
p954
aS'The Westwood, 1152 Valencia St, San Francisco, CA, 94110'
p955
aS'The Willows, 1582 Folsom St, San Francisco, CA, 94103'
p956
aS'Thermidor, 8 Mint Plaza, San Francisco, CA, 94103'
p957
aS'Ti-couz - CLOSED, 3108 16th St, San Francisco, CA, 94103'
p958
aS'Tipsy Cow, 15005 Ventura Blvd, Sherman Oaks, CA, 94103'
p959
aS'Toast, 1601 Polk St, San Francisco, CA, 94109'
p960
aS'Toast Eatery, 1748 Church St, San Francisco, CA, 94131'
p961
aS'Toasties, 836 Irving St, San Francisco, CA, 94122'
p962
aS"Tony Baloney's, 1098 Howard St, San Francisco, CA, 94103"
p963
aS'Tony Romas, 2 Perry St, San Francisco, CA, 94107'
p964
aS"Tony's Cable Car Restaurant, 2500 Geary Blvd, San Francisco, CA, 94115"
p965
aS'Tower Burger, 729 Portola Dr, San Francisco, CA, 94127'
p966
aS'Town Hall, 342 Howard St, San Francisco, CA, 94105'
p967
aS"Town's End Restaurant & Bakery, 2 Townsend St, San Francisco, CA, 94107"
p968
aS'Trace, 181 3rd St, San Francisco, CA, 94103'
p969
aS'Trick Dog, 3010 20th St, San Francisco, CA, 94110'
p970
aS'Trolley Caffe, 1400 Taraval St, San Francisco, CA, 94116'
p971
aS'Trou Normand, 140 New Montgomery St, San Francisco, CA, 94105'
p972
aS"Tully's Coffee, 3966 24th St, San Francisco, CA, 94114"
p973
aS'Two Jacks Seafood, 401 Haight St, San Francisco, CA, 94117'
p974
aS'Two Sisters Bar And Books, 579 Hayes St, San Francisco, CA, 94102'
p975
aS"Tyger's Coffee Shop, 2798 Diamond St, San Francisco, CA, 94131"
p976
aS'Ultra Crepes, Location Varies, San Francisco, CA, 94102'
p977
aS'Umami Burger, 2184 Union St, San Francisco, CA, 94123'
p978
aS"Uncle Boy's, 245 Balboa St, San Francisco, CA, 94118"
p979
aS'Union Larder, 1945 Hyde St, San Francisco, CA, 94109'
p980
aS'Universal Cafe, 2814 19th St, San Francisco, CA, 94110'
p981
aS'Upcider, 1160 Polk St, San Francisco, CA, 94109'
p982
aS'Urban Putt, 1096 S Van Ness Ave, San Francisco, CA, 94110'
p983
aS'Urchin Bistrot, 584 Valencia St, San Francisco, CA, 94110'
p984
aS'V Cafe, 1525 Folsom St, San Francisco, CA, 94107'
p985
aS'VIP Coffee & Cakes Shop, 671 Broadway, San Francisco, CA, 94133'
p986
aS'Velvet Room, 495 Geary St, San Francisco, CA, 94102'
p987
aS'Verbena, 2323 Polk St, San Francisco, CA, 94109'
p988
aS'Victory Hall, 360 Ritch St, San Francisco, CA, 94107'
p989
aS'Vinyl, 359 Divisidero St, San Francisco, CA, 94117'
p990
aS'Vitrine, 125 3rd St, San Francisco, CA, 94103'
p991
aS'Voodoo Van, Location Varies, San Francisco, CA, 94103'
p992
aS'Walzwerk, 381 S Van Ness Ave, San Francisco, CA, 94103'
p993
aS"Wendy's Cheesecake Bakery, 4942 3rd St, San Francisco, CA, 94124"
p994
aS"Wexler's, 568 Sacramento St, San Francisco, CA, 94111"
p995
aS'Whisk On Wheels, Location Varies, San Francisco, CA, 94105'
p996
aS'Whiz Burgers, 700 S Van Ness Ave, San Francisco, CA, 94110'
p997
aS'Wild Hare, 2801 California St, San Francisco, CA, 94115'
p998
aS'Wing Wings, 422 Haight St, San Francisco, CA, 94117'
p999
aS'Wipeout, Pier 39, San Francisco, CA, 94133'
p1000
aS'Wise Sons Deli, 3150 24th St, San Francisco, CA, 94110'
p1001
aS'Wise Sons Deli, 736 Mission St, San Francisco, CA, 94103'
p1002
aS"Wolfe's Lunch, 1220 16th St, San Francisco, CA, 94107"
p1003
aS'World Wrapps, 2257 Chestnut St, San Francisco, CA, 94123'
p1004
aS'World Wrapps, 293 Bay Shore Blvd, San Francisco, CA, 94124'
p1005
aS'Your Community Restaurant, 5149 3rd St, San Francisco, CA, 94124'
p1006
aS'Z Crepes, 1700 Owens St, San Francisco, CA, 94158'
p1007
aS'Z Pizza, 833 Mission Street, San Francisco, CA, 94103'
p1008
aS"Zeke's, 600 3rd St, San Francisco, CA, 94107"
p1009
aS"Ziggy's Burgers, 21 Drumm St, San Francisco, CA, 94111"
p1010
aS'bin 480, 480 Sutter St, San Francisco, CA, 94108'
p1011
aS'yoCup, 685 Market St, San Francisco, CA, 94105'
p1012
a.