(lp0
S'1300 on Filmore'
p1
aS'1760'
p2
aS'18th Hour Cafe'
p3
aS'20 Spot (Twenty Spot)'
p4
aS'21st Amendment Brewery Cafe'
p5
aS'398 Restaurant & Bar'
p6
aS'3rd Street Grill'
p7
aS'4505 Burgers & BBQ'
p8
aS'4505 Meats'
p9
aS'456 Deli & Cafe'
p10
aS'A Table'
p11
aS'ABC Bakery Cafe'
p12
aS'ABC Bakery Cafe'
p13
aS'AG Ferrari Foods'
p14
aS'AG Ferrari Foods'
p15
aS'AK Subs'
p16
aS'AQ'
p17
aS'Absinthe'
p18
aS'Akiba'
p19
aS'Alamo Square Seafood Grill'
p20
aS"Alfred's Steakhouse"
p21
aS'Alibi'
p22
aS'Aliment'
p23
aS'Alimento'
p24
aS'All Star Cafe'
p25
aS'Allstar Donuts & Burgers'
p26
aS'Alta CA'
p27
aS'Ame'
p28
aS'Amelie'
p29
aS'American Cafe '
p30
aS'American Cupcake'
p31
aS'American Eatery'
p32
aS"Anabelle's Bar & Bistro"
p33
aS'Anchor & Hope'
p34
aS'Andersen Bakery'
p35
aS"Andronico's Deli & Market"
p36
aS"Angelina's Cafe & Deli"
p37
aS"Anna's Teriyaki"
p38
aS"Annabelle's Bar & Bistro"
p39
aS"Annie's Hot Dogs & Pretzels"
p40
aS"Applebee's"
p41
aS'Aquitaine'
p42
aS'Aracely'
p43
aS"Arby's"
p44
aS'Archive Bar & Kitchen'
p45
aS'Arguello Super Market'
p46
aS"Art's Cafe"
p47
aS'Atlas Cafe'
p48
aS'Aurea'
p49
aS"Avedano's"
p50
aS'B Restaurant and Bar'
p51
aS'B Star'
p52
aS'BIX'
p53
aS'Baby Blues BBQ'
p54
aS'Bacon Bacon'
p55
aS'Baker Street Bistro'
p56
aS'Balancoire'
p57
aS'Balboa Cafe'
p58
aS'Balcony Bar at Sundance Kabuki Cinema'
p59
aS'Bar 333 & Bistro'
p60
aS'Bar 888'
p61
aS'Bar Agricole'
p62
aS'Bar Jules'
p63
aS'Bar Tartine'
p64
aS"Barney's Gourmet Hamburgers"
p65
aS"Barney's Gourmet Hamburgers"
p66
aS'Bartlett Hall'
p67
aS'Baskin-Robbins'
p68
aS'Baskin-Robbins'
p69
aS'Bay Watch Restaurant'
p70
aS'Beach Chalet'
p71
aS'Beach Street Grill'
p72
aS'Beachside'
p73
aS'Bean Bag Cafe'
p74
aS'Beautifull'
p75
aS"Bechelli's Flower Market Cafe"
p76
aS"Beep's Burgers"
p77
aS'Belly Burgers'
p78
aS'Belmar - La Gallinita'
p79
aS"Ben & Jerry's"
p80
aS"Bender's Bar & Grill"
p81
aS'Bergerac'
p82
aS'Bernal Star'
p83
aS'Bi-Rite Market'
p84
aS'Bi-Rite Market'
p85
aS'Biergarten'
p86
aS'Big 4 ( Big Four)'
p87
aS"Big Chef Tom's Belly Burgers"
p88
aS'Big Mouth Burgers'
p89
aS"Bill's Place"
p90
aS'Bin 38'
p91
aS'Bin 55'
p92
aS'Bisou'
p93
aS'Bistro 10UN'
p94
aS'Bistro Aix'
p95
aS'Bistro Boudin'
p96
aS'Bistro Burger'
p97
aS'Bistro Burger'
p98
aS'Bistro Burger'
p99
aS'Bistro Burger'
p100
aS'Bistro Central Parc'
p101
aS'Bistro Gambrinus'
p102
aS"Bistro L'Aviateur"
p103
aS'Bistro SF Grill'
p104
aS'Blackpoint Cafe'
p105
aS'Blu Restaurant and Cafe'
p106
aS'Blue Front Cafe'
p107
aS'Blueprint Tap Room'
p108
aS'Blush Wine Bar'
p109
aS'Boccalone'
p110
aS'Bonanza Restaurant'
p111
aS'Boogaloos'
p112
aS'Boston Market'
p113
aS'Bouche'
p114
aS'Boudin Bakery'
p115
aS'Boudin Bakery'
p116
aS'Boudin Sourdough Bakery & Cafe'
p117
aS'Boudin Sourdough Bakery & Cafe'
p118
aS'Boudin Sourdough Bakery & Cafe'
p119
aS'Boudin Sourdough Bakery & Cafe'
p120
aS'Boulevard'
p121
aS'Brannan Street Cafe'
p122
aS'Brasserie S&P'
p123
aS'Bravo Pizza'
p124
aS"Brenda's French Soul Food"
p125
aS'Broadway Dim Sum'
p126
aS'Broadway Pizza'
p127
aS'Broken Record'
p128
aS"Bruno's"
p129
aS'Buckhorn Grill'
p130
aS'Buckhorn Grill'
p131
aS'Buckhorn Grill'
p132
aS'Buckhorn Grill'
p133
aS'Buffalo Burgers'
p134
aS'Bullshead'
p135
aS'Burger Bar'
p136
aS'Burger Gourmet'
p137
aS'Burger House'
p138
aS'Burger Joint'
p139
aS'Burger King'
p140
aS'Burger King'
p141
aS'Burger King'
p142
aS'Burger King'
p143
aS'Burger King'
p144
aS'Burger King'
p145
aS'Burger King'
p146
aS'Burger King'
p147
aS'Burger King'
p148
aS'Burger King'
p149
aS'Burger King'
p150
aS'Burger King'
p151
aS'Burger King'
p152
aS'Burger Urge'
p153
aS'Burgermeister'
p154
aS'Burgermeister'
p155
aS'Burgermeister'
p156
aS'CDXX'
p157
aS'Cable Car Cafe'
p158
aS'Cable Car City Pub & Cafe'
p159
aS"Caesar's Cafe & Crepes"
p160
aS'Cafe Andree'
p161
aS'Cafe Bello'
p162
aS'Cafe Benally'
p163
aS'Cafe Bistro (Nordstroms)'
p164
aS'Cafe Claude'
p165
aS'Cafe Claude Marina'
p166
aS'Cafe Du Soleil'
p167
aS'Cafe Encore'
p168
aS'Cafe Europa'
p169
aS'Cafe Flore'
p170
aS'Cafe Francisco'
p171
aS'Cafe GoLo'
p172
aS'Cafe Jacqueline'
p173
aS'Cafe La Taza'
p174
aS'Cafe Leah'
p175
aS'Cafe Leah 2'
p176
aS'Cafe Lombard'
p177
aS'Cafe Med'
p178
aS'Cafe Meuse'
p179
aS'Cafe Phoenix'
p180
aS'Cafe Playfield'
p181
aS'Cafe Rain Tree'
p182
aS'Cafe Rain Tree'
p183
aS'Cafe Taboo'
p184
aS'Cafe Zazo'
p185
aS'Cafe Zoet'
p186
aS'Cafe at the Opera'
p187
aS'Cafe de la Presse'
p188
aS'Caffe Museo'
p189
aS'Caffe Union'
p190
aS'Calibur'
p191
aS'California Crisp'
p192
aS'Campton Place'
p193
aS'Careme 350'
p194
aS"Carl's Jr."
p195
aS"Carl's Jr."
p196
aS"Carl's Jr."
p197
aS'Cassava Bakery & Cafe'
p198
aS'Castagna'
p199
aS"Causwell's"
p200
aS'Cefiore'
p201
aS'Central Kitchen'
p202
aS'Chambers Eat & Drink'
p203
aS'Chapeau!'
p204
aS"Charlie's Deli Cafe"
p205
aS'Chaya Brasserie'
p206
aS'Cheese Plus'
p207
aS'Chestnut Diner'
p208
aS'Chez Julien'
p209
aS'Chez Maman'
p210
aS'Chez Maman'
p211
aS'Chez Maman'
p212
aS'Chez Papa'
p213
aS'Chiotras'
p214
aS"Chloe's Cafe"
p215
aS'ChouChou'
p216
aS"Chouquet's"
p217
aS'Chow Church'
p218
aS'Chowder Hut Fresh Grill'
p219
aS'Cigar Bar & Grill'
p220
aS"Cindy's Market"
p221
aS'Circa'
p222
aS'Citizens Band'
p223
aS'City Club of San Francisco'
p224
aS'City Gourmet'
p225
aS'Citys Choice'
p226
aS"Clancey's Market & Deli"
p227
aS"Clare's"
p228
aS'Claudine'
p229
aS'Clement Street Bar & Grill'
p230
aS'Clock Bar'
p231
aS"Cobb's Comedy Club"
p232
aS'Cockscomb'
p233
aS'Cocola Bakery & Pastry'
p234
aS'Cocotte'
p235
aS'Coi'
p236
aS'Commonwealth'
p237
aS'Community Table'
p238
aS'Concordia Argonaut'
p239
aS'Continental Cafe & Deli'
p240
aS'Cool Cravings'
p241
aS'Corner Bakery Cafe'
p242
aS'Corsagna Deli'
p243
aS'Couchy Potatoes'
p244
aS'Cove Cafe'
p245
aS'Cowgirl Creamery Sidekick'
p246
aS'Crepe Cone by Sophie'
p247
aS'Crepe Express'
p248
aS'Crepe La Vie'
p249
aS'Crepe Madame'
p250
aS'Crepe O Chocolat'
p251
aS'Crepe Temptations'
p252
aS'Crepe and Curry'
p253
aS'Creperie Saint Germain'
p254
aS'Creperie Saint-Germain'
p255
aS'Crepes A Go Go'
p256
aS'Crepes On Cole'
p257
aS'Crepes Ooh La La'
p258
aS'Crepevine'
p259
aS'Crepevine'
p260
aS'Crustacean'
p261
aS'Curbside Cafe'
p262
aS'Custom Burger'
p263
aS"Cybelle's Front Room"
p264
aS"D'urso Italian Delicatessen"
p265
aS"Da Kine's Hawaiian Bbq"
p266
aS"Daddy Boy's Pizza"
p267
aS'Daily Grill'
p268
aS"David's"
p269
aS'De Young Museum Cafe'
p270
aS'Dear Mom (Fogcutter)'
p271
aS'Delancey Street'
p272
aS'Delessio Market & Bakery'
p273
aS'Deli & ...'
p274
aS'Delica'
p275
aS'Delicioso Creperie'
p276
aS'Delish Deli'
p277
aS"Denny's"
p278
aS"Denny's"
p279
aS"Denny's"
p280
aS'Diala Pizza 2'
p281
aS'Diamond Cafe'
p282
aS"Diller's"
p283
aS'Dirty Habit'
p284
aS'Dobbs Ferry'
p285
aS"Doc's Of The Bay"
p286
aS"Domino's Pizza"
p287
aS"Domino's Pizza"
p288
aS"Domino's Pizza"
p289
aS"Domino's Pizza"
p290
aS"Domino's Pizza"
p291
aS'Double Decker'
p292
aS'Double Play'
p293
aS'Dr. Teeth and the Electric Mayhem'
p294
aS'Drake'
p295
aS'Drumm Liquor & Deli'
p296
aS'Dusty Buns'
p297
aS'Dux'
p298
aS'Eagle Cafe'
p299
aS'Eat Curbside'
p300
aS'Ebb Tide Cafe'
p301
aS'Eclipse Cafe'
p302
aS'Eden Lounge'
p303
aS'Educated Palate'
p304
aS'Eleven O One'
p305
aS"Emo's Cafe"
p306
aS'Eureka'
p307
aS'EuroBistro'
p308
aS"Eva's Hawaiian Cafe"
p309
aS'Fable'
p310
aS'Farm:Table'
p311
aS'Fat Beli Deli'
p312
aS'Fat Slice'
p313
aS'Fatt Dog'
p314
aS'Feed'
p315
aS'Fins On the Hoof'
p316
aS'Fireburger'
p317
aS'Firefly'
p318
aS'Firewood Cafe'
p319
aS'First Crush'
p320
aS'Fish & Farm'
p321
aS"Fisherman's Pizzeria"
p322
aS"Fishermen's Grotto #9"
p323
aS'FiveTen Burger'
p324
aS'Fleur De Sel'
p325
aS"Flipper's"
p326
aS'Flour + Water'
p327
aS'Fly Bar And Restaurant'
p328
aS'Fog City'
p329
aS'Forbes Island'
p330
aS'Fort Mason Market & Deli'
p331
aS'Foundation Cafe'
p332
aS'Fountain Cafe'
p333
aS'Fox Plaza Deli Cafe'
p334
aS'France Delices'
p335
aS'Frances'
p336
aS'Freddies Sandwiches #2'
p337
aS'French Creme Brulee'
p338
aS'Fresco Pizza & Shawarma'
p339
aS'Fringale'
p340
aS'Frisco Fried'
p341
aS'Frjtz'
p342
aS'Frjtz'
p343
aS'Front Door Cafe'
p344
aS'G Food Lounge'
p345
aS'GS Riverside BBQ'
p346
aS'Galette 88'
p347
aS'Gallery Cafe'
p348
aS"Gambino's"
p349
aS'Gamine'
p350
aS"Ganim's Deli"
p351
aS'Garcon'
p352
aS"Garibaldi's"
p353
aS'Gaspar Brasserie'
p354
aS'Geneva Steak House'
p355
aS'Genki Crepes'
p356
aS"George's Zoo"
p357
aS'Geppetto'
p358
aS'Gestalt Haus'
p359
aS'Globe'
p360
aS"Go Getter's Deli"
p361
aS'Go Streatery'
p362
aS'Gold Coast Grill & Catering'
p363
aS'Golden Gate Indian Cuisine & Pizza'
p364
aS'Golden Gate Meat Company'
p365
aS'Good Eats Cafe'
p366
aS"Gott's Roadside Tray Gourmet"
p367
aS'Grand Seven Food Liquer & Deli'
p368
aS'Green Heart Foods'
p369
aS'Griddle Fresh'
p370
aS'Grub'
p371
aS'Grubstake'
p372
aS"Grumpy's American Pub"
p373
aS"Guerra's Deli & Meats"
p374
aS'H20 Cafe'
p375
aS'Haagen Dazs'
p376
aS'Hamburger Haven'
p377
aS'Handy Delicatessen'
p378
aS"Harris'"
p379
aS'Harrow'
p380
aS"Harry Denton's Starlight Room"
p381
aS"Harry's Bar"
p382
aS'Harvest Urban Market'
p383
aS"Harvey's"
p384
aS'Hawaii West Bbq'
p385
aS'Hawaiian Drive Inn'
p386
aS'Hawaiian Drive Inn. #28'
p387
aS"Hazel's Kitchen"
p388
aS'Heirloom Cafe'
p389
aS'Hella Vegan Eats'
p390
aS'Herbivore'
p391
aS'Heyday'
p392
aS'Hi Dive'
p393
aS'Hi Tops'
p394
aS'Hillside Supper Club'
p395
aS'Hillstone'
p396
aS"Hoffman's"
p397
aS'Hog & Rocks'
p398
aS'Hole in the Wall Pizza'
p399
aS'Holey Bagel'
p400
aS'Hollow Cow Market'
p401
aS'Holy Grill'
p402
aS'Home Plate'
p403
aS'Home Skillet'
p404
aS'Honey Honey Cafe & Crepery'
p405
aS'Hopwater Distribution'
p406
aS'Horatius'
p407
aS'Horizon Restaurant & Lounge'
p408
aS"Horner's Corner"
p409
aS'House of Bagels'
p410
aS"Howard's Cafe"
p411
aS'Huxley'
p412
aS'IHOP'
p413
aS'In-N-Out Burger'
p414
aS'In-N-Out Burger'
p415
aS'Indigo'
p416
aS'Ironside'
p417
aS'Irving Street Cafe'
p418
aS'Isa'
p419
aS"Israel's Strictly Kosher"
p420
aS"It's A Grind Coffee House"
p421
aS"It's Top's Coffee Shop"
p422
aS'J & V Restaurant and Catering'
p423
aS'J Shack'
p424
aS'J Tu Cafe'
p425
aS"JB's Place"
p426
aS"Jablow's Meats"
p427
aS'Jack in the Box'
p428
aS'Jack in the Box'
p429
aS'Jack in the Box'
p430
aS'Jack in the Box'
p431
aS'Jack in the Box'
p432
aS'Jacks Cannery Bar'
p433
aS"Jake's Place"
p434
aS'Jamba Juice'
p435
aS'Jamba Juice'
p436
aS'Jamba Juice'
p437
aS'Jamba Juice'
p438
aS'Jamba Juice'
p439
aS'Jamber'
p440
aS'Jardiniere'
p441
aS"Jasmin's Cafe & Deli"
p442
aS"Jasper's Corner Tap & Kitchen"
p443
aS'Java House'
p444
aS"Jillian's"
p445
aS"Joanie's Happy Days Diner"
p446
aS"John's Burgers"
p447
aS"John's Grill"
p448
aS'Johnny Rockets'
p449
aS"Johnson's Bar-b-que"
p450
aS'Jones'
p451
aS"Judy's Cafe"
p452
aS"Juicey Lucy's"
p453
aS"Juicy Lucy's"
p454
aS'Jump Start Coffee & Grocery'
p455
aS'KFC - Kentucky Fried Chicken'
p456
aS'KFC - Kentucky Fried Chicken'
p457
aS'KFC - Kentucky Fried Chicken'
p458
aS'KFC - Kentucky Fried Chicken'
p459
aS'KFC - Kentucky Fried Chicken'
p460
aS'KFC - Kentucky Fried Chicken'
p461
aS'KFC - Kentucky Fried Chicken'
p462
aS'KFC - Kentucky Fried Chicken'
p463
aS'KFC - Kentucky Fried Chicken'
p464
aS'KFC - Kentucky Fried Chicken'
p465
aS"Kate O'Briens"
p466
aS"Kate's Kitchen"
p467
aS'Keiko a Nob Hill'
p468
aS"Kenny's Chinese & American"
p469
aS'Kezar Bar & Restaurant'
p470
aS'Kinfolk'
p471
aS'King Salame Sandwich Shop'
p472
aS'King of Currywurst'
p473
aS'Kitchen Story'
p474
aS'Knuckles Sports Bar & Grill'
p475
aS'L & L Hawaiian BBQ'
p476
aS"L'Olivier"
p477
aS"L'ardoise"
p478
aS'La Bergerie'
p479
aS'La Boulange'
p480
aS'La Boulange'
p481
aS'La Boulange'
p482
aS'La Boulange'
p483
aS'La Boulange'
p484
aS'La Boulange'
p485
aS'La Boulange de Columbus'
p486
aS'La Boulange de Hayes'
p487
aS'La Boulange de Market'
p488
aS'La Boulange du Dome'
p489
aS'La Ciudad De Mexico'
p490
aS'La Folie'
p491
aS'La Galleria Cafe'
p492
aS'LaLe'
p493
aS'Lafayette Coffee Shop'
p494
aS'Lagos Pizza'
p495
aS'Lakeside Cafe'
p496
aS'Larkin Express'
p497
aS"Larry Flynt's Hustler Club"
p498
aS'Last Drop Tavern'
p499
aS'Laszlo Bar'
p500
aS'Lazy Bear'
p501
aS'Le Central Bistro'
p502
aS'Le Charm'
p503
aS'Le Marais Bakery'
p504
aS"Le Petitt's Kitchen"
p505
aS'Le Regency'
p506
aS'Le Zinc'
p507
aS'LeBeau Nob Hill Market'
p508
aS'Leaping Lemur Cafe'
p509
aS"Lee's"
p510
aS"Lee's Deli"
p511
aS"Lee's Deli"
p512
aS"Lee's Deli"
p513
aS"Lee's Deli"
p514
aS"Lee's Deli"
p515
aS"Lefty O'Doul's"
p516
aS'Legion Of Honor Cafe'
p517
aS'Leland Tea Company'
p518
aS"Leopold's"
p519
aS'Les Clos'
p520
aS'Les Joulins Jazz Bistro'
p521
aS'Level III'
p522
aS'Levi Plaza Cafe'
p523
aS'Library Bar'
p524
aS"Lilah Belle's"
p525
aS"Lilly's Bar-B-Que"
p526
aS'Little Cafe '
p527
aS'Little Griddle'
p528
aS'Little Heaven Deli'
p529
aS"Little Joe's Pizzeria"
p530
aS'Little Piglet Cafe'
p531
aS'Little Red Riding Truck'
p532
aS'Little Wok'
p533
aS'Local'
p534
aS"Lori's Diner"
p535
aS"Lori's Diner"
p536
aS"Lou's Cafe"
p537
aS"Louie's Bar & Grill"
p538
aS"Louis' Restaurant"
p539
aS'Louisiana Famous Fried Chicken'
p540
aS'Louisiana Famous Fried Chicken'
p541
aS'LuLu'
p542
aS'Lucca Delicatessen'
p543
aS'Lucca Food Store'
p544
aS'Luce'
p545
aS'Lucky Strike Lanes'
p546
aS'Luna Park'
p547
aS'Luques'
p548
aS'MKT'
p549
aS'MaSo'
p550
aS"Mabel's Just For You Cafe"
p551
aS'Machine Coffee & Deli'
p552
aS'Magnolia'
p553
aS'Mahalo!'
p554
aS'Mama Cass'
p555
aS"Mama's"
p556
aS'Manhattan Hub'
p557
aS'Marble Slab Creamery'
p558
aS'Marengo'
p559
aS'Marina Deli'
p560
aS'Marina Submarine'
p561
aS'Marius Deli & Cafe'
p562
aS'Market Mayflower & Deli'
p563
aS'Market Street Grill'
p564
aS'Marla Bakery'
p565
aS'Marlowe'
p566
aS'Mars Bar & Restaurant'
p567
aS'Martin Macks'
p568
aS"Martita's Kitchen"
p569
aS'Mason Pacific'
p570
aS'Maven'
p571
aS"Max's Market"
p572
aS"Max's Opera Cafe"
p573
aS'Mayes Oyster House'
p574
aS"McCormick & Kuleto's"
p575
aS"McDonald's"
p576
aS"McDonald's"
p577
aS"McDonald's"
p578
aS"McDonald's"
p579
aS"McDonald's"
p580
aS"McDonald's"
p581
aS"McDonald's"
p582
aS"McDonald's"
p583
aS"McDonald's"
p584
aS"McDonald's"
p585
aS"McDonald's"
p586
aS"McDonald's"
p587
aS"McDonald's"
p588
aS"McDonald's"
p589
aS"McDonald's"
p590
aS"McDonald's"
p591
aS"McDonald's"
p592
aS"McDonald's"
p593
aS'Me So Hungry'
p594
aS'Metro Burger Caffe'
p595
aS'Michael Mina'
p596
aS'Michaelis Food Store'
p597
aS"Miller's East Coast Deli"
p598
aS'Mission Beach Cafe'
p599
aS'Mission Grille'
p600
aS'Mission Rock Resort'
p601
aS"Mission's Kitchen"
p602
aS"Mo's"
p603
aS"MoMo's"
p604
aS"Monk's Kettle"
p605
aS'Monroe'
p606
aS'Monsieur Benjamin'
p607
aS'Monterey Deli'
p608
aS'Moolicious'
p609
aS'Moolicious'
p610
aS'Morning Due Cafe'
p611
aS"Morty's Delicatessen"
p612
aS'Moscone Pizzadeli'
p613
aS"Moscone's At Saint Francis Place"
p614
aS'Moscow & Tbilisi Bakery Store'
p615
aS'Mozzarella Di Bufala'
p616
aS'MrCrave'
p617
aS'Muka'
p618
aS"Mum's"
p619
aS'Municher'
p620
aS"Murphy's Deli"
p621
aS'My Corner Cafe'
p622
aS'Mymy Coffee Shop'
p623
aS'NY Buffalo Wings'
p624
aS'New Aux Delices'
p625
aS'New Village Cafe'
p626
aS"Nickie's"
p627
aS'Nico'
p628
aS'Nob Hill Club'
p629
aS'Nob Hill Grille'
p630
aS'Noeteca'
p631
aS'Noir'
p632
aS'North Beach'
p633
aS'North Beach Lobster Shack'
p634
aS'Nova'
p635
aS'O Izakaya Lounge'
p636
aS'OZ Lounge'
p637
aS'Old Ship Saloon'
p638
aS'Old Skool Cafe'
p639
aS'Olive'
p640
aS"Olivia's Fish - Chicken & Gumbo"
p641
aS'Olympic Flame Cafe'
p642
aS'One Market'
p643
aS'One Up'
p644
aS'Oola'
p645
aS'Opaque'
p646
aS'Original Buffalo Wings'
p647
aS'Original Ghirardelli Ice Cream & Chocolate Shop'
p648
aS"Orphan Andy's"
p649
aS'Our Court Cafe'
p650
aS"Pal's Takeaway"
p651
aS'Palm Tree Cafe'
p652
aS"Palmer's Tavern"
p653
aS'Panera Bread'
p654
aS'Panera Bread'
p655
aS"Papa John's Pizza"
p656
aS'Paragon'
p657
aS'Parallel 37'
p658
aS'Paris Pizza and Grill'
p659
aS'Park Chalet'
p660
aS'Park Chow'
p661
aS'Park Grill'
p662
aS'Park Tavern'
p663
aS'Parkside Tavern'
p664
aS"Pat's Cafe"
p665
aS"Pat's Cafe"
p666
aS"Paul's Deli"
p667
aS'Pause'
p668
aS"Pearl's Deluxe Burgers"
p669
aS'Penthouse Club & Restaurant'
p670
aS'Per Diem'
p671
aS'Perfect Hamburger'
p672
aS"Perry's"
p673
aS"Perry's"
p674
aS"Perry's"
p675
aS'Pesce'
p676
aS"Pete's Deli and Cafe"
p677
aS"Peter D's"
p678
aS'Petit Cafe'
p679
aS'Phoenix Bar & Irish Gathering Place'
p680
aS'Pier Market Seafood Restaurant'
p681
aS'Pinecrest Diner'
p682
aS'Pisces California Cuisine'
p683
aS'Pizza Hut'
p684
aS'Pizza Hut'
p685
aS'Pizza Hut'
p686
aS'Pizza Joint'
p687
aS'Pizza Prada'
p688
aS"Pizza Zone 'N Grill"
p689
aS'Players'
p690
aS'Plouf'
p691
aS'Plow'
p692
aS"Pluto's"
p693
aS"Pluto's"
p694
aS"Polker's Gourmet Burgers"
p695
aS'Polo Grounds'
p696
aS'Pomelo'
p697
aS'Pomelo'
p698
aS'Popeyes Chicken & Biscuits'
p699
aS'Popeyes Chicken & Biscuits'
p700
aS'Popeyes Chicken & Biscuits'
p701
aS'Popeyes Chicken & Biscuits'
p702
aS'Pork Store Cafe'
p703
aS'Pork Store Cafe'
p704
aS'Portico'
p705
aS'Posh Bagel'
p706
aS'Preet Palace'
p707
aS'Presidio Cafe'
p708
aS'Presidio Social Club'
p709
aS'Prime Dip'
p710
aS'Proper Food'
p711
aS'Punjab'
p712
aS'Queen Malika'
p713
aS'Quickly'
p714
aS'Quince'
p715
aS'Quiznos Sub'
p716
aS'Quiznos Sub'
p717
aS'Quiznos Sub'
p718
aS'Quiznos Sub'
p719
aS'Quiznos Sub'
p720
aS'Quiznos Sub'
p721
aS'RN74'
p722
aS'Radish'
p723
aS'Radius'
p724
aS'Rainforest Cafe'
p725
aS'Red Dog'
p726
aS'Red Door Cafe'
p727
aS"Red's Java House"
p728
aS'Redford'
p729
aS'Restaurant Gary Danko'
p730
aS'Restaurant Seven Fifty (750)'
p731
aS"Rhea's Cafe"
p732
aS"Rhea's Deli"
p733
aS'Rich Table'
p734
aS'Rickybobby'
p735
aS'Rigolo'
p736
aS"Roady's Longburger"
p737
aS'Roam Artisan Burgers'
p738
aS'Robber Baron'
p739
aS'Rogue Ales Public House'
p740
aS'Rosamunde Sausage Grill'
p741
aS'Rosamunde Sausage Grill'
p742
aS'Rosenberg Deli and Market'
p743
aS'Rosenburg Deli'
p744
aS"Rossi's Delicatessen"
p745
aS'Rouge et Blanc'
p746
aS'Round Table Pizza'
p747
aS'Roxanne Cafe'
p748
aS"Rubio's"
p749
aS'Ruby Skye'
p750
aS'Rue Lepic'
p751
aS'Rye Project'
p752
aS'S & R Lounge'
p753
aS"S.F. Preet's Cafe"
p754
aS'SPQR'
p755
aS'Saigon Deli Express'
p756
aS'Salt House'
p757
aS'Salumeria'
p758
aS'Salumeria'
p759
aS"Sammy's Gourmet Deli & Cafe"
p760
aS"Sammy's on 2nd"
p761
aS'Sauce'
p762
aS'Sauce'
p763
aS'Savor'
p764
aS'Sbarro'
p765
aS'Schilling Cafe'
p766
aS"Schmidt's"
p767
aS"Schroeder's"
p768
aS'Sea Breeze Cafe'
p769
aS'Seaglass'
p770
aS'Seal Rock Inn Restaurant'
p771
aS'Sears Fine Food'
p772
aS'Sheba Piano Lounge'
p773
aS"Shorty Goldstein's"
p774
aS'Show Dogs'
p775
aS'Silver Clouds'
p776
aS"Sinbad's"
p777
aS'Slow Club'
p778
aS'SmashBurger'
p779
aS"Smokin' Warehouse"
p780
aS'SoMa Inn Cafe'
p781
aS'Soccer Cafe'
p782
aS'Social Kitchen & Brewery'
p783
aS'Soma Eats'
p784
aS'Sons & Daughters'
p785
aS'Sorrento Delicatessen'
p786
aS'South End Grill & Bar'
p787
aS'South Park Cafe'
p788
aS'Southern Pacific Brewing Company'
p789
aS'Sparrow'
p790
aS'Spinnerie'
p791
aS'Split Pea Seduction'
p792
aS'Spruce'
p793
aS'Squat & Gobble'
p794
aS'Squat & Gobble'
p795
aS'St. Vincent'
p796
aS'Stacks'
p797
aS'Starbelly'
p798
aS'Starbucks Coffee'
p799
aS'Starbucks Coffee'
p800
aS'Starbucks Coffee'
p801
aS'Starbucks Coffee'
p802
aS'Starbucks Coffee'
p803
aS'Starbucks Coffee'
p804
aS'Starbucks Coffee'
p805
aS'Starbucks Coffee'
p806
aS'Starbucks Coffee'
p807
aS'Starbucks Coffee'
p808
aS'Starbucks Coffee'
p809
aS'Starbucks Coffee'
p810
aS'Starbucks Coffee'
p811
aS'Starbucks Coffee'
p812
aS'Starbucks Coffee'
p813
aS'Starbucks Coffee'
p814
aS'Starbucks Coffee'
p815
aS'Starbucks Coffee'
p816
aS'Starbucks Coffee'
p817
aS'Starbucks Coffee'
p818
aS'Starbucks Coffee'
p819
aS'Starbucks Coffee'
p820
aS'Starbucks Coffee'
p821
aS'Starbucks Coffee'
p822
aS'Starbucks Coffee'
p823
aS'Starbucks Coffee'
p824
aS'Starbucks Coffee'
p825
aS'Starbucks Coffee'
p826
aS'Starbucks Coffee'
p827
aS'Starbucks Coffee'
p828
aS'Starbucks Coffee'
p829
aS'Starbucks Coffee'
p830
aS'Starbucks Coffee'
p831
aS'Starbucks Coffee'
p832
aS'Starbucks Coffee'
p833
aS'Starbucks Coffee'
p834
aS'Starbucks Coffee'
p835
aS'Starbucks Coffee'
p836
aS'Starbucks Coffee'
p837
aS'Starbucks Coffee'
p838
aS'Starbucks Coffee'
p839
aS'Starbucks Coffee'
p840
aS'Starbucks Coffee'
p841
aS'Starbucks Coffee'
p842
aS'Starbucks Coffee'
p843
aS'Starbucks Coffee'
p844
aS'Starbucks Coffee'
p845
aS'Starbucks Coffee'
p846
aS'Starbucks Coffee'
p847
aS'Starbucks Coffee'
p848
aS'Starbucks Coffee'
p849
aS'Starbucks Coffee'
p850
aS'Starvin Marvin'
p851
aS'State Bird Provisions'
p852
aS'Steep Brew'
p853
aS'Steins'
p854
aS'Stem'
p855
aS'Stock in Trade'
p856
aS'Stones Throw'
p857
aS'Straw'
p858
aS'Street'
p859
aS'Stuffed'
p860
aS'Subway'
p861
aS'Subway'
p862
aS'Subway'
p863
aS'Sugar Bowl Bakery'
p864
aS'Sugar Bowl Bakery'
p865
aS'Sunrise Cafe'
p866
aS'Super Duper'
p867
aS'Suppenkuche'
p868
aS'Supperclub'
p869
aS'Sutter Pub'
p870
aS'Sweet Woodruff'
p871
aS'Sweetmue'
p872
aS"Swensen's"
p873
aS"T'Licious Delicatessens"
p874
aS"T.G.I. Friday's"
p875
aS'TAP415'
p876
aS'TBD'
p877
aS'TJ Cafe'
p878
aS'Tadich Grill'
p879
aS'Tapioca Express'
p880
aS'Taps'
p881
aS"Tarantino's Restaurant"
p882
aS'Tartine Bakery'
p883
aS'Tartine Cafe Francais'
p884
aS'Taverna Aventine'
p885
aS'Teaway'
p886
aS"Ted's Market"
p887
aS"Ted's Sports Bar & Grill"
p888
aS'Tee Off Bar and Grill'
p889
aS'Tempest'
p890
aS'Tender'
p891
aS'Tender Greens'
p892
aS'Tennessee Grill'
p893
aS'Terrace Cafe'
p894
aS'The Alembic'
p895
aS'The American Grilled Cheese Kitchen'
p896
aS'The Aveline'
p897
aS'The Bell Tower'
p898
aS'The Bitter End'
p899
aS'The Blue Plate'
p900
aS"The Boy's Deli"
p901
aS'The Brazen Head'
p902
aS'The Brick Yard Restaurant & Bar'
p903
aS'The Bubble Lounge'
p904
aS'The Burritt Room + Burritt Tavern'
p905
aS'The Butler & The Chef Bistro'
p906
aS'The Chameleon'
p907
aS'The Cheesecake Factory'
p908
aS'The Cliff House Bistro'
p909
aS'The Commissary'
p910
aS'The Corner Store'
p911
aS'The Cravery'
p912
aS'The Crepe Cafe'
p913
aS'The Crepe House'
p914
aS'The Crepe House'
p915
aS'The European'
p916
aS'The Front Room'
p917
aS'The Garden Court'
p918
aS'The Great Steak and Potato Company'
p919
aS'The Grill'
p920
aS'The Grind Cafe'
p921
aS'The Grove Cafe Yerba Buena'
p922
aS'The Grove Fillmore'
p923
aS'The Holding Company'
p924
aS'The Italian Homemade Company'
p925
aS'The Jewel Restaurant'
p926
aS'The Liberties'
p927
aS'The Living Room'
p928
aS'The Lost Ladles Cafe'
p929
aS'The Matterhorn Swiss Restaurant'
p930
aS'The Melt'
p931
aS'The Mortimer'
p932
aS'The Oak Room'
p933
aS'The Pied Piper'
p934
aS'The Plant'
p935
aS'The Progress'
p936
aS'The Pub'
p937
aS'The Ramp'
p938
aS'The Rite Spot Cafe'
p939
aS'The Rotunda'
p940
aS'The Royal Exchange'
p941
aS'The Royale'
p942
aS'The Sandwich Company'
p943
aS'The Seismic Joint'
p944
aS'The Sentinel'
p945
aS'The Showroom'
p946
aS'The Social Study'
p947
aS'The Square'
p948
aS'The Taco Guys'
p949
aS'The Terrace'
p950
aS'The Tipsy Pig'
p951
aS'The Tradesman'
p952
aS'The Vestry'
p953
aS'The View Cafe'
p954
aS'The View Lounge'
p955
aS'The Westwood'
p956
aS'The Willows'
p957
aS'Thermidor'
p958
aS'Ti-couz - CLOSED'
p959
aS'Tipsy Cow'
p960
aS'Toast'
p961
aS'Toast Eatery'
p962
aS'Toasties'
p963
aS"Tony Baloney's"
p964
aS'Tony Romas'
p965
aS"Tony's Cable Car Restaurant"
p966
aS'Tower Burger'
p967
aS'Town Hall'
p968
aS"Town's End Restaurant & Bakery"
p969
aS'Trace'
p970
aS'Trick Dog'
p971
aS'Triptych'
p972
aS'Trolley Caffe'
p973
aS'Trou Normand'
p974
aS"Tully's Coffee"
p975
aS'Two Jacks Seafood'
p976
aS'Two Sisters Bar And Books'
p977
aS"Tyger's Coffee Shop"
p978
aS'Ultra Crepes'
p979
aS'Umami Burger'
p980
aS"Uncle Boy's"
p981
aS'Union Larder'
p982
aS'Universal Cafe'
p983
aS'Upcider'
p984
aS'Urban Putt'
p985
aS'Urchin Bistrot'
p986
aS'V Cafe'
p987
aS'VIP Coffee & Cakes Shop'
p988
aS'Velvet Room'
p989
aS'Verbena'
p990
aS'Victory Hall'
p991
aS'Vinyl'
p992
aS'Vitrine'
p993
aS'Voodoo Van'
p994
aS'Walzwerk'
p995
aS"Wendy's Cheesecake Bakery"
p996
aS"Wexler's"
p997
aS'Whisk On Wheels'
p998
aS'Whiz Burgers'
p999
aS'Wild Hare'
p1000
aS'Wing Wings'
p1001
aS'Wipeout'
p1002
aS'Wise Sons Deli'
p1003
aS'Wise Sons Deli'
p1004
aS"Wolfe's Lunch"
p1005
aS'World Wrapps'
p1006
aS'World Wrapps'
p1007
aS'Your Community Restaurant'
p1008
aS'Z Crepes'
p1009
aS'Z Pizza'
p1010
aS"Zeke's"
p1011
aS"Ziggy's Burgers"
p1012
aS'bin 480'
p1013
aS'yoCup'
p1014
a.