(lp0
S'1300 Fillmore St, San Francisco, CA, 94115'
p1
aS'1760 Polk St, San Francisco, CA, 94109'
p2
aS'3674 18th St, San Francisco, CA, 94110'
p3
aS'3565 20th St, San Francisco, CA, 94110'
p4
aS'563 2nd St, San Francisco, CA, 94107'
p5
aS'398 Geary St, San Francisco, CA, 94102'
p6
aS'695 3rd St, San Francisco, CA, 94107'
p7
aS'705 Divisadero St, San Francisco, CA, 94117'
p8
aS'Location Varies, San Francisco, CA, 94110'
p9
aS'456 Montgomery St, San Francisco, CA, 94104'
p10
aS'101 Spear St, San Francisco, CA, 94105'
p11
aS'2500 Noriega St, San Francisco, CA, 94122'
p12
aS'650 Jackson St, San Francisco, CA, 94108'
p13
aS'3490 California St, San Francisco, CA, 94118'
p14
aS'688 Mission St, San Francisco, CA, 94105'
p15
aS'397 8th St, San Francisco, CA, 94103'
p16
aS'1085 Mission St, San Francisco, CA, 94103'
p17
aS'398 Hayes St, San Francisco, CA, 94102'
p18
aS'3141 Clement St, San Francisco, CA, 94121'
p19
aS'803 Fillmore St, San Francisco, CA, 94117'
p20
aS'659 Merchant St, San Francisco, CA, 94111'
p21
aS'142 Minna St, San Francisco, CA, 94105'
p22
aS'786 Bush St, San Francisco, CA, 94108'
p23
aS'507 Columbus Ave, San Francisco, CA, 94133'
p24
aS'550 Market St, San Francisco, CA, 94104'
p25
aS'290 Golden Gate Ave, San Francisco, CA, 94102'
p26
aS'1420 Market St, San Francisco, CA, 94103'
p27
aS'689 Mission St, San Francisco, CA, 94105'
p28
aS'1754 Polk St, San Francisco, CA, 94109'
p29
aS'955 Market Street, San Francisco, CA, 94103'
p30
aS'1919 Union St, San Francisco, CA, 94123'
p31
aS'Ferry Plaza, San Francisco, CA, 94111'
p32
aS'68 4th St, San Francisco, CA, 94103'
p33
aS'83 Minna St, San Francisco, CA, 94105'
p34
aS'665 Market St, San Francisco, CA, 94105'
p35
aS'1200 Irving St, San Francisco, CA, 94122'
p36
aS'6000 California St, San Francisco, CA, 94121'
p37
aS'83 9th St, San Francisco, CA, 94103'
p38
aS'68 4th St, San Francisco, CA, 94103'
p39
aS'899 Market St, San Francisco, CA, 94105'
p40
aS'2770 Taylor St, San Francisco, CA, 94133'
p41
aS'175 Sutter St, San Francisco, CA, 94104'
p42
aS'1201 8th St, San Francisco, CA, 94107'
p43
aS'1581 Sloat Blvd, San Francisco, CA, 94132'
p44
aS'602 Mission St, San Francisco, CA, 94105'
p45
aS'782 Arguello Blvd, San Francisco, CA, 94118'
p46
aS'747 Irving St, San Francisco, CA, 94122'
p47
aS'3049 20th St, San Francisco, CA, 94110'
p48
aS'905 California St, San Francisco, CA, 94108'
p49
aS'237 Cortland Ave, San Francisco, CA, 94110'
p50
aS'720 Howard St, San Francisco, CA, 94103'
p51
aS'410 Cortland Ave, San Francisco, CA, 94110'
p52
aS'56 Gold St, San Francisco, CA, 94133'
p53
aS'3149 Mission St, San Francisco, CA, 94110'
p54
aS'205 A Frederick St, San Francisco, CA, 94117'
p55
aS'2953 Baker St, San Francisco, CA, 94123'
p56
aS'2565 Mission St, San Francisco, CA, 94110'
p57
aS'3199 Fillmore St, San Francisco, CA, 94123'
p58
aS'1865 Post St, San Francisco, CA, 94115'
p59
aS'333 Battery St, San Francisco, CA, 94111'
p60
aS'888 Howard St, San Francisco, CA, 94103'
p61
aS'355 11th St, San Francisco, CA, 94103'
p62
aS'609 Hayes St, San Francisco, CA, 94102'
p63
aS'561 Valencia St, San Francisco, CA, 94110'
p64
aS'3344 Steiner St, San Francisco, CA, 94123'
p65
aS'4138 24th St, San Francisco, CA, 94114'
p66
aS'242 OFarrell St, San Francisco, CA, 94102'
p67
aS'1539 Sloat Blvd, San Francisco, CA, 94132'
p68
aS'2250 Irving St, San Francisco, CA, 94122'
p69
aS'2150 Lombard St, San Francisco, CA, 94123'
p70
aS'1000 Great Hwy, San Francisco, CA, 94121'
p71
aS'380 Beach St, San Francisco, CA, 94133'
p72
aS'4300 Judah St, San Francisco, CA, 94122'
p73
aS'601 Divisadero St, San Francisco, CA, 94117'
p74
aS'3401 California St, San Francisco, CA, 94118'
p75
aS'698 Brannan St, San Francisco, CA, 94107'
p76
aS'1051 Ocean Ave, San Francisco, CA, 94112'
p77
aS'5740 Geary Blvd, San Francisco, CA, 94121'
p78
aS'2989 24th St, San Francisco, CA, 94110'
p79
aS'79 Jefferson St, San Francisco, CA, 94133'
p80
aS'806 S Van Ness Ave, San Francisco, CA, 94110'
p81
aS'316 11th St, San Francisco, CA, 94103'
p82
aS'410 Cortland Ave, San Francisco, CA, 94110'
p83
aS'3639 18th St, San Francisco, CA, 94110'
p84
aS'550 Divisadero St, San Francisco, CA, 94117'
p85
aS'424 Octavia Blvd, San Francisco, CA, 94102'
p86
aS'1075 California St, San Francisco, CA, 94108'
p87
aS'1550 Howard St, San Francisco, CA, 94103'
p88
aS'3392 24th St, San Francisco, CA, 94110'
p89
aS'2315 Clement St, San Francisco, CA, 94121'
p90
aS'3232 Scott St, San Francisco, CA, 94123'
p91
aS'780 Mission St, San Francisco, CA, 94103'
p92
aS'2367 Market St, San Francisco, CA, 94114'
p93
aS'1130 Market St, San Francisco, CA, 94102'
p94
aS'3340 Steiner St, San Francisco, CA, 94123'
p95
aS'160 Jefferson St, San Francisco, CA, 94133'
p96
aS'201 Mission St, San Francisco, CA, 94105'
p97
aS'333 Bush St, San Francisco, CA, 94104'
p98
aS'343 Sansome St, San Francisco, CA, 94104'
p99
aS'845 Market St, San Francisco, CA, 94103'
p100
aS'560 Central Ave, San Francisco, CA, 94117'
p101
aS'1813 Fulton St, San Francisco, CA, 94117'
p102
aS'2850 21st St, San Francisco, CA, 94110'
p103
aS'2819 California St, San Francisco, CA, 94115'
p104
aS'882 North Point St, San Francisco, CA, 94109'
p105
aS'747 Market St, San Francisco, CA, 94103'
p106
aS'1430 Haight St, San Francisco, CA, 94117'
p107
aS'680 8th St, San Francisco, CA, 94103'
p108
aS'476 Castro St, San Francisco, CA, 94114'
p109
aS'Ferry Plaza, San Francisco, CA, 94111'
p110
aS'16 Toland St, San Francisco, CA, 94124'
p111
aS'3296 22nd St, San Francisco, CA, 94110'
p112
aS'2300 16th St, San Francisco, CA, 94103'
p113
aS'603 Bush St, San Francisco, CA, 94108'
p114
aS'25 Van Ness Ave, San Francisco, CA, 94102'
p115
aS'Pier 39, Space 5-Q, San Francisco, CA, 94133'
p116
aS'160 Jefferson St, San Francisco, CA, 94133'
p117
aS'19th Ave & Winston St, San Francisco, CA, 94103'
p118
aS'399 10th Ave, San Francisco, CA, 94118'
p119
aS'4 Embarcadero Ctr, San Francisco, CA, 94111'
p120
aS'1 Mission St, San Francisco, CA, 94105'
p121
aS'274 Brannan St, San Francisco, CA, 94107'
p122
aS'222 Sansome St, San Francisco, CA, 94104'
p123
aS'5145 Mission St, San Francisco, CA, 94112'
p124
aS'652 Polk St, San Francisco, CA, 94102'
p125
aS'684 Broadway, San Francisco, CA, 94133'
p126
aS'448 Broadway, San Francisco, CA, 94133'
p127
aS'1166 Geneva Ave, San Francisco, CA, 94112'
p128
aS'2389 Mission St, San Francisco, CA, 94110'
p129
aS'101 4th St, San Francisco, CA, 94103'
p130
aS'4 Embarcadero Ctr, San Francisco, CA, 94111'
p131
aS'4 Perry St, San Francisco, CA, 94107'
p132
aS'865 Market St, San Francisco, CA, 94103'
p133
aS'5317 Geary Blvd, San Francisco, CA, 94121'
p134
aS'840 Ulloa St, San Francisco, CA, 94127'
p135
aS'251 Geary St, San Francisco, CA, 94102'
p136
aS'101 Spear St, San Francisco, CA, 94105'
p137
aS'237 Powell St, San Francisco, CA, 94102'
p138
aS'807 Valencia St, San Francisco, CA, 94110'
p139
aS'1298 Howard St, San Francisco, CA, 94103'
p140
aS'1690 Valencia St, San Francisco, CA, 94110'
p141
aS'1701 Fillmore St, San Francisco, CA, 94115'
p142
aS'245 Bay Shore Blvd, San Francisco, CA, 94124'
p143
aS'25 Van Ness Ave, San Francisco, CA, 94102'
p144
aS'2739 Taylor St, San Francisco, CA, 94133'
p145
aS'2978 16th St, San Francisco, CA, 94103'
p146
aS'35 Powell St, San Francisco, CA, 94102'
p147
aS'360 Bay St, San Francisco, CA, 94133'
p148
aS'3900 Geary Blvd, San Francisco, CA, 94118'
p149
aS'4780 Mission St, San Francisco, CA, 94112'
p150
aS'724 La Playa St, San Francisco, CA, 94121'
p151
aS'819 Van Ness Ave, San Francisco, CA, 94109'
p152
aS'1599 Haight St, San Francisco, CA, 94117'
p153
aS'138 Church St, San Francisco, CA, 94114'
p154
aS'759 Columbus Ave, San Francisco, CA, 94133'
p155
aS'86 Carl St, San Francisco, CA, 94117'
p156
aS'5800 3rd Street, San Francisco, CA, 94124'
p157
aS'519 Powell St, San Francisco, CA, 94108'
p158
aS'1 Hallidie Plz, San Francisco, CA, 94102'
p159
aS'208 Valencia St, San Francisco, CA, 94103'
p160
aS'526 Sutter St, San Francisco, CA, 94102'
p161
aS'2885 Diamond St, San Francisco, CA, 94131'
p162
aS'1131 Taraval St, San Francisco, CA, 94116'
p163
aS'865 Market St, San Francisco, CA, 94103'
p164
aS'7 Claude Ln, San Francisco, CA, 94108'
p165
aS'2120 Greenwich St, San Francisco, CA, 94123'
p166
aS'345 3rd St, San Francisco, CA, 94107'
p167
aS'488 Post St, San Francisco, CA, 94102'
p168
aS'4318 California St, San Francisco, CA, 94118'
p169
aS'2298 Market St, San Francisco, CA, 94114'
p170
aS'2161 Powell St, San Francisco, CA, 94133'
p171
aS'1602 Lombard St, San Francisco, CA, 94123'
p172
aS'1454 Grant Ave, San Francisco, CA, 94133'
p173
aS'2475 Mission St, San Francisco, CA, 94110'
p174
aS'25 Beale St, San Francisco, CA, 94105'
p175
aS'77 Beale St, San Francisco, CA, 94105'
p176
aS'1424 Lombard St, San Francisco, CA, 94123'
p177
aS'201 Pine St, San Francisco, CA, 94104'
p178
aS'1400 Pacific Ave, San Francisco, CA, 94109'
p179
aS'1234 Indiana St, San Francisco, CA, 94107'
p180
aS'1 Zoo Rd, San Francisco, CA, 94132'
p181
aS'118 West Portal Ave, San Francisco, CA, 94127'
p182
aS'654 Irving St, San Francisco, CA, 94122'
p183
aS'600 York St, San Francisco, CA, 94110'
p184
aS'64 14th St, San Francisco, CA, 94103'
p185
aS'520 Leavenworth St, San Francisco, CA, 94109'
p186
aS'301 Van Ness Avenue, San Francisco, CA, 94102'
p187
aS'352 Grant Ave, San Francisco, CA, 94108'
p188
aS'151 3rd St, San Francisco, CA, 94103'
p189
aS'1830 Union St, San Francisco, CA, 94123'
p190
aS'68 W Portal Ave, San Francisco, CA, 94127'
p191
aS'3251 20th Ave, San Francisco, CA, 94132'
p192
aS'340 Stockton St, San Francisco, CA, 94108'
p193
aS'350 Rhode Island St, San Francisco, CA, 94103'
p194
aS'1 Hallidie Plz, San Francisco, CA, 94102'
p195
aS'10 United Nations Plz, San Francisco, CA, 94102'
p196
aS'4 Embarcadero Ctr, San Francisco, CA, 94111'
p197
aS'3519 Balboa St, San Francisco, CA, 94121'
p198
aS'2015 Chestnut St, San Francisco, CA, 94123'
p199
aS'2346 Chestnut St, San Francisco, CA, 94123'
p200
aS'59 New Montgomery St, San Francisco, CA, 94105'
p201
aS'3000 20th St, San Francisco, CA, 94110'
p202
aS'601 Eddy St, San Francisco, CA, 94109'
p203
aS'126 Clement St, San Francisco, CA, 94118'
p204
aS'3202 Folsom St, San Francisco, CA, 94117'
p205
aS'132 The Embarcadero, San Francisco, CA, 94105'
p206
aS'2001 Polk St, San Francisco, CA, 94109'
p207
aS'1312 Chestnut St, San Francisco, CA, 94123'
p208
aS'100 Bush St, San Francisco, CA, 94104'
p209
aS'1453 18th St, San Francisco, CA, 94107'
p210
aS'2223 Union St, San Francisco, CA, 94123'
p211
aS'401 Gough St, San Francisco, CA, 94102'
p212
aS'4 Mint Plz, San Francisco, CA, 94103'
p213
aS'858 Rhode Island St, San Francisco, CA, 94107'
p214
aS'1399 Church St, San Francisco, CA, 94114'
p215
aS'400 Dewey Blvd, San Francisco, CA, 94116'
p216
aS'2500 Washington St, San Francisco, CA, 94115'
p217
aS'215 Church St, San Francisco, CA, 94114'
p218
aS'2890 Taylor St, San Francisco, CA, 94133'
p219
aS'850 Montgomery St, San Francisco, CA, 94133'
p220
aS'2084 Hayes Street, San Francisco, CA, 94117'
p221
aS'2001 Chestnut St, San Francisco, CA, 94123'
p222
aS'1198 Folsom St, San Francisco, CA, 94103'
p223
aS'155 Sansome St, San Francisco, CA, 94104'
p224
aS'590 3rd St, San Francisco, CA, 94107'
p225
aS'301 5th St, San Francisco, CA, 94107'
p226
aS'3960 Irving St, San Francisco, CA, 94122'
p227
aS'3505 17th St, San Francisco, CA, 94110'
p228
aS'8 Claude Ln, San Francisco, CA, 94108'
p229
aS'708 Clement St, San Francisco, CA, 94118'
p230
aS'335 Powell St, San Francisco, CA, 94102'
p231
aS'915 Columbus Ave, San Francisco, CA, 94133'
p232
aS'564 4th St, San Francisco, CA, 94107'
p233
aS'865 Market St, San Francisco, CA, 94103'
p234
aS'1521 Hyde St, San Francisco, CA, 94109'
p235
aS'373 Broadway, San Francisco, CA, 94133'
p236
aS'2224 Mission St, San Francisco, CA, 94110'
p237
aS'3200 California St , San Francisco, CA, 94118'
p238
aS'1142 Van Ness Ave, San Francisco, CA, 94109'
p239
aS'845 Howard St, San Francisco, CA, 94103'
p240
aS'1635 Divisadero St, San Francisco, CA, 94115'
p241
aS'665 Market St, San Francisco, CA, 94105'
p242
aS'1668 Union St, San Francisco, CA, 94123'
p243
aS'1251 20th Ave, San Francisco, CA, 94122'
p244
aS'434 Castro St, San Francisco, CA, 94114'
p245
aS'Ferry Plaza, San Francisco, CA, 94102'
p246
aS'684 King St, San Francisco, CA, 94107'
p247
aS'1476 Haight St, San Francisco, CA, 94117'
p248
aS'1727 Haight St, San Francisco, CA, 94177'
p249
aS'685 Harrison St, San Francisco, CA, 94107'
p250
aS'75 Ofarrell St, San Francisco, CA, 94108'
p251
aS'2575 Judah St, San Francisco, CA, 94122'
p252
aS'5 Embarcadero Ctr, San Francisco, CA, 94111'
p253
aS'222 2nd St, San Francisco, CA, 94105'
p254
aS'555 California St, San Francisco, CA, 94104'
p255
aS'350 11th St, San Francisco, CA, 94103'
p256
aS'100 Carl St, San Francisco, CA, 94117'
p257
aS'1220 Polk St, San Francisco, CA, 94109'
p258
aS'216 Church St, San Francisco, CA, 94114'
p259
aS'624 Irving St, San Francisco, CA, 94122'
p260
aS'1475 Polk St, San Francisco, CA, 94109'
p261
aS'2417 California St, San Francisco, CA, 94115'
p262
aS'121 7th St, San Francisco, CA, 94102'
p263
aS'1385 9th Ave, San Francisco, CA, 94122'
p264
aS'236 Townsend St, San Francisco, CA, 94107'
p265
aS'4808 Mission St, San Francisco, CA, 94112'
p266
aS'4524 3rd St, San Francisco, CA, 94124'
p267
aS'347 Geary St, San Francisco, CA, 94102'
p268
aS'474 Geary St, San Francisco, CA, 94102'
p269
aS'50 Hagiwara Tea Garden Dr, San Francisco, CA, 94118'
p270
aS'2700 16th St, San Francisco, CA, 94103'
p271
aS'600 Embarcadero, San Francisco, CA, 94107'
p272
aS'1695 Market St, San Francisco, CA, 94103'
p273
aS'124 Montgomery St, San Francisco, CA, 94104'
p274
aS'1 Ferry Plaza, San Francisco, CA, 94111'
p275
aS'2948 Folsom St, San Francisco, CA, 94110'
p276
aS'752 Van Ness Ave, San Francisco, CA, 94102'
p277
aS'1700 Post St, San Francisco, CA, 94115'
p278
aS'495 Beach St, San Francisco, CA, 94133'
p279
aS'816 Mission St, San Francisco, CA, 94103'
p280
aS'2424 Mission St, San Francisco, CA, 94110'
p281
aS'751 Diamond St, San Francisco, CA, 94114'
p282
aS'348 Pine St, San Francisco, CA, 94104'
p283
aS'12 4th St, San Francisco, CA, 94103'
p284
aS'409 Gough St, San Francisco, CA, 94102'
p285
aS'Location Varies, San Francisco, CA, 94123'
p286
aS'1408 Fillmore St, San Francisco, CA, 94115'
p287
aS'3116 Noriega St, San Francisco, CA, 94122'
p288
aS'320 Bay Shore Blvd, San Francisco, CA, 94124'
p289
aS'5200 Geary Blvd, San Francisco, CA, 94118'
p290
aS'876 Geary St, San Francisco, CA, 94109'
p291
aS'465 Grove St, San Francisco, CA, 94102'
p292
aS'2401 16th St, San Francisco, CA, 94103'
p293
aS'2323 Mission St, San Francisco, CA, 94110'
p294
aS'508 4th St, San Francisco, CA, 94107'
p295
aS'15 Drumm St, San Francisco, CA, 94111'
p296
aS'Location Varies, San Francisco, CA, 94103'
p297
aS'780 Valencia St, San Francisco, CA, 94110'
p298
aS'Pier 39, San Francisco, CA, 94133'
p299
aS'500 Mission St, San Francisco, CA, 94105'
p300
aS'1500 S Van Ness Ave, San Francisco, CA, 94110'
p301
aS'5 Embarcadero Ctr, San Francisco, CA, 94111'
p302
aS'1692 Stockton St, San Francisco, CA, 94133'
p303
aS'88 4th St, San Francisco, CA, 94103'
p304
aS'1101 Polk St, San Francisco, CA, 94109'
p305
aS'201 Turk St, San Francisco, CA, 94102'
p306
aS'4063 18th St, San Francisco, CA, 94114'
p307
aS'Location Varies, San Francisco, CA, 94103'
p308
aS'731 Clement St, San Francisco, CA, 94118'
p309
aS'558 Castro St, San Francisco, CA, 94114'
p310
aS'754 Post St, San Francisco, CA, 94109'
p311
aS'2598 San Bruno Ave, San Francisco, CA, 94134'
p312
aS'1535 Haight St, San Francisco, CA, 94117'
p313
aS'200 Pine St, San Francisco, CA, 94104'
p314
aS'215 Fremont, San Francisco, CA, 94105'
p315
aS'Location Varies, San Francisco, CA, 94103'
p316
aS'2138 Irving St, San Francisco, CA, 94122'
p317
aS'4288 24th St, San Francisco, CA, 94114'
p318
aS'4248 18th St, San Francisco, CA, 94114'
p319
aS'101 Cyril Magnin St, San Francisco, CA, 94102'
p320
aS'339 Taylor St, San Francisco, CA, 94102'
p321
aS'2800 Leavenworth St, San Francisco, CA, 94133'
p322
aS'2847 Taylor St, San Francisco, CA, 94133'
p323
aS'location varies, San Francisco, CA, 94103'
p324
aS'308 Kearny St, San Francisco, CA, 94108'
p325
aS'482 Hayes St, San Francisco, CA, 94102'
p326
aS'2401 Harrison St, San Francisco, CA, 94110'
p327
aS'1085 Sutter St, San Francisco, CA, 94109'
p328
aS'1300 Battery St, San Francisco, CA, 94111'
p329
aS'Pier 39, San Francisco, CA, 94133'
p330
aS'1701 Greenwich St, San Francisco, CA, 94123'
p331
aS'335 Kearny St, San Francisco, CA, 94108'
p332
aS'50 Post St, San Francisco, CA, 94104'
p333
aS'1390 Market St, San Francisco, CA, 94102'
p334
aS'Location Varies, San Francisco, CA, 94123'
p335
aS'3870 17th St, San Francisco, CA, 94114'
p336
aS'1488 Pine St, San Francisco, CA, 94109'
p337
aS'720 Market St, San Francisco, CA, 94108'
p338
aS'1338 Polk St, San Francisco, CA, 94109'
p339
aS'570 4th St, San Francisco, CA, 94107'
p340
aS'5176 3rd St, San Francisco, CA, 94124'
p341
aS'579 Hayes St, San Francisco, CA, 94102'
p342
aS'590 Valencia St, San Francisco, CA, 94110'
p343
aS'1 Front St, San Francisco, CA, 94111'
p344
aS'Location Varies, San Francisco, CA, 94107'
p345
aS'3751 Geary Blvd, San Francisco, CA, 94118'
p346
aS'88 Hardie Pl, San Francisco, CA, 94104'
p347
aS'1200 Mason St, San Francisco, CA, 94108'
p348
aS'One Market Plz, San Francisco, CA, 94105'
p349
aS'2223 Union St, San Francisco, CA, 94123'
p350
aS'1135 18th St, San Francisco, CA, 94107'
p351
aS'1101 Valencia St, San Francisco, CA, 94110'
p352
aS'347 Presidio Ave, San Francisco, CA, 94115'
p353
aS'185 Sutter St, San Francisco, CA, 94104'
p354
aS'5130 Mission St, San Francisco, CA, 94112'
p355
aS'330 Clement St, San Francisco, CA, 94118'
p356
aS'2560 Sloat Blvd, San Francisco, CA, 94116'
p357
aS'658 Vallejo St, San Francisco, CA, 94133'
p358
aS'3159 16th St, San Francisco, CA, 94103'
p359
aS'290 Pacific Ave, San Francisco, CA, 94111'
p360
aS'100 Gough Street, San Francisco, CA, 94102'
p361
aS'Location Varies, San Francisco, CA, 94102'
p362
aS'1650 Holloway Ave, San Francisco, CA, 94132'
p363
aS'1388 46th Ave, San Francisco, CA, 94122'
p364
aS'1 Ferry Building, San Francisco, CA, 94111'
p365
aS'200 Pine St, San Francisco, CA, 94104'
p366
aS'1 Ferry Building, San Francisco, CA, 94111'
p367
aS'1740 Cesar Chavez St, San Francisco, CA, 94124'
p368
aS'3321 20th St, San Francisco, CA, 94110'
p369
aS'4007 24th St, San Francisco, CA, 94114'
p370
aS'758 Valencia St, San Francisco, CA, 94110'
p371
aS'1525 Pine St, San Francisco, CA, 94109'
p372
aS'125 Vallejo St, San Francisco, CA, 94111'
p373
aS'490 Taraval St, San Francisco, CA, 94116'
p374
aS'1330 Polk St, San Francisco, CA, 94109'
p375
aS'3251 20th Ave, San Francisco, CA, 94132'
p376
aS'800 Clement St, San Francisco, CA, 94118'
p377
aS'1815 Irving St, San Francisco, CA, 94122'
p378
aS'2100 Van Ness Ave, San Francisco, CA, 94109'
p379
aS'357 Kearny St, San Francisco, CA, 94108'
p380
aS'450 Powell St, San Francisco, CA, 94102'
p381
aS'2020 Fillmore St, San Francisco, CA, 94115'
p382
aS'191 8th St, San Francisco, CA, 94103'
p383
aS'500 Castro St, San Francisco, CA, 94114'
p384
aS'729 Vallejo St, San Francisco, CA, 94133'
p385
aS'2600 San Bruno Ave, San Francisco, CA, 94134'
p386
aS'4827 Mission St, San Francisco, CA, 94112'
p387
aS'1331 18th St, San Francisco, CA, 94107'
p388
aS'2500 Folsom St, San Francisco, CA, 94110'
p389
aS'Location Varies, San Francisco, CA, 94110'
p390
aS'531 Divisadero St, San Francisco, CA, 94117'
p391
aS'180 Spear St, San Francisco, CA, 94105'
p392
aS'Pier 28 1/2, San Francisco, CA, 94105'
p393
aS'2247 Market St, San Francisco, CA, 94114'
p394
aS'300 Precita Ave, San Francisco, CA, 94110'
p395
aS'1800 Montgomery St, San Francisco, CA, 94111'
p396
aS'1000 Guerrero St, San Francisco, CA, 94110'
p397
aS'3431 19th St, San Francisco, CA, 94110'
p398
aS'3244 Scott St, San Francisco, CA, 94123'
p399
aS'3872 24th St, San Francisco, CA, 94114'
p400
aS'3165 Steiner St, San Francisco, CA, 94123'
p401
aS'659 Townsend St, San Francisco, CA, 94103'
p402
aS'2274 Lombard St, San Francisco, CA, 94123'
p403
aS'1001 Market St, San Francisco, CA, 94103'
p404
aS'599 Post St, San Francisco, CA, 94102'
p405
aS'850 Bush St, San Francisco, CA, 94108'
p406
aS'350 Kansas St, San Francisco, CA, 94103'
p407
aS'498 Broadway St, San Francisco, CA, 94133'
p408
aS'1199 Church St, San Francisco, CA, 94114'
p409
aS'5030 Geary Blvd, San Francisco, CA, 94118'
p410
aS'1309 9th Ave, San Francisco, CA, 94122'
p411
aS'846 Geary St, San Francisco, CA, 94109'
p412
aS'200 Beach St, San Francisco, CA, 94133'
p413
aS'333 Jefferson St, San Francisco, CA, 94133'
p414
aS'333 Jefferson St, San Francisco, CA, 94133'
p415
aS'687 McAllister St, San Francisco, CA, 94102'
p416
aS'680A 2nd St, San Francisco, CA, 94107'
p417
aS'716 Irving St, San Francisco, CA, 94122'
p418
aS'3324 Steiner St, San Francisco, CA, 94123'
p419
aS'675 Victoria St, San Francisco, CA, 94127'
p420
aS'1800 Polk St, San Francisco, CA, 94109'
p421
aS'1801 Market St, San Francisco, CA, 94103'
p422
aS'2095 Jerrold Ave, San Francisco, CA, 94124'
p423
aS'Location Varies, San Francisco, CA, 94103'
p424
aS'582 Sutter St, San Francisco, CA, 94102'
p425
aS'1435 17th St, San Francisco, CA, 94107'
p426
aS'86 2nd St, San Francisco, CA, 94105'
p427
aS'366 Bay Shore Blvd , San Francisco, CA, 94124'
p428
aS'400 Geary St, San Francisco, CA, 94102'
p429
aS'42 1st St, San Francisco, CA, 94105'
p430
aS'4649 Geary Blvd, San Francisco, CA, 94118'
p431
aS'808 Mission St, San Francisco, CA, 94103'
p432
aS'2801 Leavenworth St, San Francisco, CA, 94133'
p433
aS'293 Bayshore Blvd, San Francisco, CA, 94124'
p434
aS'1200 Van Ness Ave, San Francisco, CA, 94109'
p435
aS'2130 Fulton St, San Francisco, CA, 94117'
p436
aS'250 Montgomery St, San Francisco, CA, 94104'
p437
aS'3480 California St, San Francisco, CA, 94118'
p438
aS'70 Mission St, San Francisco, CA, 94105'
p439
aS'858 Folsom St, San Francisco, CA, 94107'
p440
aS'300 Grove St, San Francisco, CA, 94102'
p441
aS'809 Bush St, San Francisco, CA, 94108'
p442
aS'401 Taylor St, San Francisco, CA, 94102'
p443
aS'Pier 40, San Francisco, CA, 94107'
p444
aS'101 4th St, San Francisco, CA, 94103'
p445
aS'1329 Columbus Ave, San Francisco, CA, 94133'
p446
aS'1114 Market St, San Francisco, CA, 94102'
p447
aS'63 Ellis St, San Francisco, CA, 94102'
p448
aS'81 Jefferson St, San Francisco, CA, 94133'
p449
aS'2648 San Bruno Ave, San Francisco, CA, 94134'
p450
aS'620 Jones St, San Francisco, CA, 94102'
p451
aS'2268 Chestnut St, San Francisco, CA, 94123'
p452
aS'703 Columbus Ave, San Francisco, CA, 94133'
p453
aS'703 Columbus Ave, San Francisco, CA, 94133'
p454
aS'1192 Guerrero St, San Francisco, CA, 94110'
p455
aS'1150 Taraval St, San Francisco, CA, 94116'
p456
aS'1610 Jerrold Ave, San Francisco, CA, 94124'
p457
aS'1881 Geary Blvd, San Francisco, CA, 94115'
p458
aS'1900 Irving St, San Francisco, CA, 94122'
p459
aS'200 Duboce Ave, San Francisco, CA, 94103'
p460
aS'2040 Ocean Ave, San Francisco, CA, 94127'
p461
aS'2101 Lombard St, San Francisco, CA, 94123'
p462
aS'4150 Geary Blvd, San Francisco, CA, 94118'
p463
aS'4285 Mission St, San Francisco, CA, 94112'
p464
aS'691 Eddy St, San Francisco, CA, 94109'
p465
aS'579 Howard St, San Francisco, CA, 94105'
p466
aS'471 Haight St, San Francisco, CA, 94117'
p467
aS'1250 Jones St, San Francisco, CA, 94109'
p468
aS'518 S Van Ness Ave, San Francisco, CA, 94110'
p469
aS'900 Cole St, San Francisco, CA, 94117'
p470
aS'903 Cortland Ave, San Francisco, CA, 94110'
p471
aS'1926 Lombard Street, San Francisco, CA, 94123'
p472
aS'425 Divisadero St, San Francisco, CA, 94117'
p473
aS'3499 16th St, San Francisco, CA, 94114'
p474
aS'555 N Point St, San Francisco, CA, 94133'
p475
aS'312 Kearny St, San Francisco, CA, 94108'
p476
aS'465 Davis Ct, San Francisco, CA, 94111'
p477
aS'151 Noe St, San Francisco, CA, 94114'
p478
aS'4221 Geary Blvd, San Francisco, CA, 94118'
p479
aS'1266 9th Ave, San Francisco, CA, 94122'
p480
aS'1909 Union St, San Francisco, CA, 94123'
p481
aS'2043 Fillmore St, San Francisco, CA, 94115'
p482
aS'222 Sutter St, San Francisco, CA, 94115'
p483
aS'3898 24th St, San Francisco, CA, 94114'
p484
aS'465 California St, San Francisco, CA, 94104'
p485
aS'543 Columbus St, San Francisco, CA, 94133'
p486
aS'500 Hayes St, San Francisco, CA, 94102'
p487
aS'685 Market St, San Francisco, CA, 94103'
p488
aS'845 Market St, San Francisco, CA, 94103'
p489
aS'200 6th Ave, San Francisco, CA, 94118'
p490
aS'2316 Polk St, San Francisco, CA, 94109'
p491
aS'930 Bush St, San Francisco, CA, 94109'
p492
aS'731 Irving St, San Francisco, CA, 94122'
p493
aS'611 Larkin St, San Francisco, CA, 94109'
p494
aS'448 Broadway, San Francisco, CA, 94133'
p495
aS'2529 Ocean Ave, San Francisco, CA, 94132'
p496
aS'452 Larkin St, San Francisco, CA, 94102'
p497
aS'1031 Kearny St, San Francisco, CA, 94133'
p498
aS'550 Powell St, San Francisco, CA, 94108'
p499
aS'2526 Mission St, San Francisco, CA, 94110'
p500
aS'3416 19th St, San Francisco, CA, 94110'
p501
aS'453 Bush St, San Francisco, CA, 94108'
p502
aS'315 5th St, San Francisco, CA, 94107'
p503
aS'2066 Chestnut St, San Francisco, CA, 94123'
p504
aS'265 Golden Gate Ave, San Francisco, CA, 94102'
p505
aS'18 California St, San Francisco, CA, 94111'
p506
aS'4063 24th St, San Francisco, CA, 94114'
p507
aS'1263 Leavenworth St, San Francisco, CA, 94109'
p508
aS'1 Zoo Rd, San Francisco, CA, 94132'
p509
aS'550 California St, San Francisco, CA, 94104'
p510
aS'117 New Montgomery St, San Francisco, CA, 94105'
p511
aS'222 Front St, San Francisco, CA, 94111'
p512
aS'280 Battery St, San Francisco, CA, 94111'
p513
aS'303 2nd St, San Francisco, CA, 94107'
p514
aS'615 Market St, San Francisco, CA, 94104'
p515
aS'333 Geary St, San Francisco, CA, 94102'
p516
aS'100 34th Ave, San Francisco, CA, 94121'
p517
aS'1416 Bush St, San Francisco, CA, 94109'
p518
aS'2400 Polk St, San Francisco, CA, 94109'
p519
aS'234 Townsend St, San Francisco, CA, 94107'
p520
aS'44 Ellis St, San Francisco, CA, 94102'
p521
aS'500 Post St, San Francisco, CA, 94102'
p522
aS'1155 Battery St, San Francisco, CA, 94111'
p523
aS'562 Sutter St, San Francisco, CA, 94102'
p524
aS'1207 Divisadero, San Francisco, CA, 94115'
p525
aS'705 Divisadero St, San Francisco, CA, 94117'
p526
aS'955 Market Street, San Francisco, CA, 94103'
p527
aS'1400 Market St, San Francisco, CA, 94102'
p528
aS'2348 Mission St, San Francisco, CA, 94110'
p529
aS'5006 Mission St, San Francisco, CA, 94112'
p530
aS'451 9th St, San Francisco, CA, 94103'
p531
aS'Location Varies, San Francisco, CA, 94103'
p532
aS'2675 Ocean Ave, San Francisco, CA, 94132'
p533
aS'330 1st St, San Francisco, CA, 94105'
p534
aS'336 Mason St, San Francisco, CA, 94102'
p535
aS'500 Sutter St, San Francisco, CA, 94102'
p536
aS'5017 Geary Blvd, San Francisco, CA, 94118'
p537
aS'55 Stevenson St, San Francisco, CA, 94105'
p538
aS'902 Point Lobos Ave, San Francisco, CA, 94121'
p539
aS'1325 Fillmore St, San Francisco, CA, 94115'
p540
aS'6 6th St, San Francisco, CA, 94103'
p541
aS'816 Folsom St, San Francisco, CA, 94107'
p542
aS'2120 Chestnut St, San Francisco, CA, 94123'
p543
aS'1899 Irving St, San Francisco, CA, 94122'
p544
aS'888 Howard St, San Francisco, CA, 94103'
p545
aS'200 King St, San Francisco, CA, 94107'
p546
aS'694 Valencia St, San Francisco, CA, 94110'
p547
aS'433 Powell St, San Francisco, CA, 94102'
p548
aS'757 Market St, San Francisco, CA, 94103'
p549
aS'50 3rd St, San Francisco, CA, 94103'
p550
aS'732 22nd St, San Francisco, CA, 94107'
p551
aS'1024 Market St, San Francisco, CA, 94103'
p552
aS'1398 Haight St, San Francisco, CA, 94117'
p553
aS'1376 9th Ave, San Francisco, CA, 94122'
p554
aS'Location Varies, San Francisco, CA, 94158'
p555
aS'1701 Stockton St, San Francisco, CA, 94133'
p556
aS'343 Sansome St, San Francisco, CA, 94111'
p557
aS'219 King St, San Francisco, CA, 94107'
p558
aS'1980 Union St, San Francisco, CA, 94123'
p559
aS'2299 Chestnut St, San Francisco, CA, 94123'
p560
aS'2299 Union St, San Francisco, CA, 94123'
p561
aS'150 Toland St, San Francisco, CA, 94124'
p562
aS'985 Bush St, San Francisco, CA, 94109'
p563
aS'1231 Market St, San Francisco, CA, 94103'
p564
aS'3619 Balboa St, San Francisco, CA, 94121'
p565
aS'500 Brannan St, San Francisco, CA, 94107'
p566
aS'798 Brannan St, San Francisco, CA, 94103'
p567
aS'1568 Haight St, San Francisco, CA, 94117'
p568
aS'2560 Marin St, San Francisco, CA, 94124'
p569
aS'1358 Mason St, San Francisco, CA, 94133'
p570
aS'598 Haight St, San Francisco, CA, 94117'
p571
aS'555 California St, San Francisco, CA, 94104'
p572
aS'601 Van Ness Ave, San Francisco, CA, 94102'
p573
aS'1233 Polk St, San Francisco, CA, 94109'
p574
aS'900 N Point St, San Francisco, CA, 94109'
p575
aS'1100 Fillmore St, San Francisco, CA, 94115'
p576
aS'1201 Ocean Ave, San Francisco, CA, 94112'
p577
aS'145 Jefferson St, San Francisco, CA, 94133'
p578
aS'1455 Market St, San Francisco, CA, 94103'
p579
aS'2011 Mission St, San Francisco, CA, 94110'
p580
aS'235 Front St, San Francisco, CA, 94111'
p581
aS'255 Winston Dr, San Francisco, CA, 94132'
p582
aS'2801 Mission St, San Francisco, CA, 94110'
p583
aS'302 Potrero Ave, San Francisco, CA, 94103'
p584
aS'345 Bay Shore Blvd, San Francisco, CA, 94124'
p585
aS'441 Pine St, San Francisco, CA, 94104'
p586
aS'5411 3rd St, San Francisco, CA, 94124'
p587
aS'5454 Mission St, San Francisco, CA, 94112'
p588
aS'575 Market St, San Francisco, CA, 94105'
p589
aS'600 Van Ness Ave, San Francisco, CA, 94102'
p590
aS'609 Market St, San Francisco, CA, 94105'
p591
aS'730 Stanyan St, San Francisco, CA, 94117'
p592
aS'820 Bryant St, San Francisco, CA, 94103'
p593
aS'Location Varies, San Francisco, CA, 94103'
p594
aS'247 Fillmore St, San Francisco, CA, 94117'
p595
aS'252 California St, San Francisco, CA, 94111'
p596
aS'901 N Point St, San Francisco, CA, 94109'
p597
aS'1725 Polk St, San Francisco, CA, 94109'
p598
aS'198 Guerrero St, San Francisco, CA, 94103'
p599
aS'780 Mission St, San Francisco, CA, 94103'
p600
aS'817 Terry Francois Blvd, San Francisco, CA, 94158'
p601
aS'2738 Mission St, San Francisco, CA, 94110'
p602
aS'1322 Grant Ave, San Francisco, CA, 94133'
p603
aS'760 2nd St, San Francisco, CA, 94107'
p604
aS'3141 16th St, San Francisco, CA, 94110'
p605
aS'473 Broadway, San Francisco, CA, 94133'
p606
aS'451 Gough St, San Francisco, CA, 94102'
p607
aS'499 Monterey Blvd, San Francisco, CA, 94127'
p608
aS'1 Sansome St, San Francisco, CA, 94105'
p609
aS'135 4th St, San Francisco, CA, 94103'
p610
aS'3698 17th St, San Francisco, CA, 94114'
p611
aS'280 Golden Gate Ave, San Francisco, CA, 94102'
p612
aS'257 3rd St, San Francisco, CA, 94103'
p613
aS'689 Folsom St, San Francisco, CA, 94107'
p614
aS'5540 Geary Blvd, San Francisco, CA, 94121'
p615
aS'1529 Fillmore St, San Francisco, CA, 94115'
p616
aS'655 Ellis Street , San Francisco, CA, 94109'
p617
aS'370 Grove St, San Francisco, CA, 94102'
p618
aS'1800 Sutter St, San Francisco, CA, 94115'
p619
aS'Location Varies, San Francisco, CA, 94124'
p620
aS'560 Mission St, San Francisco, CA, 94105'
p621
aS'1500 S Van Ness Ave, San Francisco, CA, 94110'
p622
aS'1500 California St, San Francisco, CA, 94109'
p623
aS'659 Valencia St, San Francisco, CA, 94110'
p624
aS'1002 Potrero Ave, San Francisco, CA, 94110'
p625
aS'1426 Polk St, San Francisco, CA, 94109'
p626
aS'466 Haight St, San Francisco, CA, 94117'
p627
aS'3228 Sacramento St, San Francisco, CA, 94115'
p628
aS'1 Nob Hill, San Francisco, CA, 94108'
p629
aS'969 Hyde St, San Francisco, CA, 94109'
p630
aS'1551 Dolores St, San Francisco, CA, 94110'
p631
aS'581 Hayes St, San Francisco, CA, 94102'
p632
aS'4787 Mission St, San Francisco, CA, 94112'
p633
aS'532 Green St, San Francisco, CA, 94133'
p634
aS'555 2nd St, San Francisco, CA, 94107'
p635
aS'1625 Post St, San Francisco, CA, 94115'
p636
aS'260 Kearny St, San Francisco, CA, 94108'
p637
aS'298 Pacific Ave, San Francisco, CA, 94111'
p638
aS'1429 Mendell Street, San Francisco, CA, 94124'
p639
aS'743 Larkin St, San Francisco, CA, 94109'
p640
aS'4712 3rd St, San Francisco, CA, 94124'
p641
aS'555 Geary St, San Francisco, CA, 94102'
p642
aS'1 Market St, San Francisco, CA, 94105'
p643
aS'345 Stockton St, San Francisco, CA, 94108'
p644
aS'860 Folsom St, San Francisco, CA, 94107'
p645
aS'689 McAllister St, San Francisco, CA, 94102'
p646
aS'2499 Lombard St, San Francisco, CA, 94123'
p647
aS'900 N Point St, San Francisco, CA, 94109'
p648
aS'3991 17th St, San Francisco, CA, 94114'
p649
aS'952 Clement St, San Francisco, CA, 94118'
p650
aS'3066 24th St, San Francisco, CA, 94110'
p651
aS'1785 Divisadero St, San Francisco, CA, 94115'
p652
aS'2298 Fillmore St, San Francisco, CA, 94115'
p653
aS'2675 Geary Blvd, San Francisco, CA, 94118'
p654
aS'301 King Street, San Francisco, CA, 94158'
p655
aS'69 Cambon Dr, San Francisco, CA, 94132'
p656
aS'701 2nd St, San Francisco, CA, 94107'
p657
aS'600 Stockton St, San Francisco, CA, 94108'
p658
aS'448 Broadway, San Francisco, CA, 94133'
p659
aS'1000 Great Hwy, San Francisco, CA, 94121'
p660
aS'1240 9th Ave, San Francisco, CA, 94122'
p661
aS'333 Battery St, San Francisco, CA, 94111'
p662
aS'1652 Stockton St, San Francisco, CA, 94133'
p663
aS'1940 Taraval St, San Francisco, CA, 94116'
p664
aS'2230 Taylor St, San Francisco, CA, 94133'
p665
aS'2330 Taylor St, San Francisco, CA, 94133'
p666
aS'10 Lombard St, San Francisco, CA, 94111'
p667
aS'1666 Market St, San Francisco, CA, 94102'
p668
aS'708 Post St, San Francisco, CA, 94109'
p669
aS'412 Broadway St, San Francisco, CA, 94133'
p670
aS'43 Sutter St, San Francisco, CA, 94104'
p671
aS'601 Geary St, San Francisco, CA, 94102'
p672
aS'155 Steuart St, San Francisco, CA, 94105'
p673
aS'1944 Union St, San Francisco, CA, 94123'
p674
aS'SFO International Airport - Terminal 1, San Francisco, CA, 94128'
p675
aS'2227 Polk St, San Francisco, CA, 94109'
p676
aS'1661 Divisadero St, San Francisco, CA, 94115'
p677
aS'2201 Van Ness Ave, San Francisco, CA, 94109'
p678
aS'501 Geary St, San Francisco, CA, 94102'
p679
aS'811 Valencia St, San Francisco, CA, 94110'
p680
aS'Pier 39, San Francisco, CA, 94133'
p681
aS'401 Geary St, San Francisco, CA, 94102'
p682
aS'3414 Judah St, San Francisco, CA, 94122'
p683
aS'1523 Sloat Blvd, San Francisco, CA, 94132'
p684
aS'3349 Mission St, San Francisco, CA, 94110'
p685
aS'728 Geary St, San Francisco, CA, 94109'
p686
aS'2414 San Bruno Ave, San Francisco, CA, 94134'
p687
aS'239 Powell St, San Francisco, CA, 94102'
p688
aS'178 Valencia St, San Francisco, CA, 94103'
p689
aS'Pier 39, San Francisco, CA, 94133'
p690
aS'40 Belden Pl, San Francisco, CA, 94104'
p691
aS'1299 18th St, San Francisco, CA, 94107'
p692
aS'3258 Scott St, San Francisco, CA, 94123'
p693
aS'627 Irving St, San Francisco, CA, 94122'
p694
aS'2226 Polk St, San Francisco, CA, 94109'
p695
aS'747 3rd St, San Francisco, CA, 94107'
p696
aS'1793 Church St, San Francisco, CA, 94131'
p697
aS'92 Judah St, San Francisco, CA, 94122'
p698
aS'1426t Fillmore St, San Francisco, CA, 94115'
p699
aS'2598 Mission St, San Francisco, CA, 94110'
p700
aS'599 Divisadero St, San Francisco, CA, 94117'
p701
aS'890 Geneva Ave, San Francisco, CA, 94112'
p702
aS'1451 Haight St, San Francisco, CA, 94117'
p703
aS'3122 16th St, San Francisco, CA, 94103'
p704
aS'98 1st St, San Francisco, CA, 94105'
p705
aS'4 Perry St, San Francisco, CA, 94107'
p706
aS'1109 Fillmore, San Francisco, CA, 94115'
p707
aS'300 Finley Rd, San Francisco, CA, 94129'
p708
aS'563 Ruger St, San Francisco, CA, 94129'
p709
aS'545A Sansome St, San Francisco, CA, 94115'
p710
aS'100 1st St, San Francisco, CA, 94105'
p711
aS'2838 24th St, San Francisco, CA, 94110'
p712
aS'4416 18 St, San Francisco, CA, 94114'
p713
aS'5301 Mission St, San Francisco, CA, 94112'
p714
aS'470 Pacific Ave, San Francisco, CA, 94133'
p715
aS'110 Bush St, San Francisco, CA, 94104'
p716
aS'1501 Sloat Blvd, San Francisco, CA, 94132'
p717
aS'215 Fremont St, San Francisco, CA, 94105'
p718
aS'28 3rd St, San Francisco, CA, 94103'
p719
aS'303 2nd St, San Francisco, CA, 94107'
p720
aS'901 Polk St, San Francisco, CA, 94109'
p721
aS'301 Mission St, San Francisco, CA, 94105'
p722
aS'3465 19th St, San Francisco, CA, 94110'
p723
aS'1123 Folsom St, San Francisco, CA, 94103'
p724
aS'145 Jefferson St, San Francisco, CA, 94133'
p725
aS'303 2nd St, San Francisco, CA, 94107'
p726
aS'1608 Bush St, San Francisco, CA, 94108'
p727
aS'Pier 30, San Francisco, CA, 94105'
p728
aS'673 Geary St, San Francisco, CA, 94102'
p729
aS'800 N Point St, San Francisco, CA, 94109'
p730
aS'750 Kearny St, San Francisco, CA, 94108'
p731
aS'2200 Bryant St, San Francisco, CA, 94110'
p732
aS'800 Valencia St, San Francisco, CA, 94110'
p733
aS'199 Gough St, San Francisco, CA, 94102'
p734
aS'400 Haight St, San Francisco, CA, 94102'
p735
aS'3465 California St, San Francisco, CA, 94118'
p736
aS'101 Spear St, San Francisco, CA, 94105'
p737
aS'1785 Union St, San Francisco, CA, 94123'
p738
aS'2032 Polk St, San Francisco, CA, 94109'
p739
aS'673 Union St, San Francisco, CA, 94133'
p740
aS'2832 Mission St, San Francisco, CA, 94110'
p741
aS'545 Haight St, San Francisco, CA, 94117'
p742
aS'276 Noe St, San Francisco, CA, 94114'
p743
aS'276 Noe St, San Francisco, CA, 94114'
p744
aS'426 Castro St, San Francisco, CA, 94114'
p745
aS'334 Grant Ave, San Francisco, CA, 94108'
p746
aS'2660 San Bruno Ave, San Francisco, CA, 94134'
p747
aS'570 Powell St, San Francisco, CA, 94108'
p748
aS'865 Market St, San Francisco, CA, 94103'
p749
aS'420 Mason St, San Francisco, CA, 94102'
p750
aS'900 Pine St, San Francisco, CA, 94108'
p751
aS'180 7th St, San Francisco, CA, 94103'
p752
aS'55 5th St, San Francisco, CA, 94103'
p753
aS'995 Market St, San Francisco, CA, 94103'
p754
aS'1911 Fillmore St, San Francisco, CA, 94115'
p755
aS'50 Drumm St, San Francisco, CA, 94105'
p756
aS'545 Mission St, San Francisco, CA, 94105'
p757
aS'1550 Bryant St, San Francisco, CA, 94103'
p758
aS'3000 20th St, San Francisco, CA, 94110'
p759
aS'1356 Van Ness Ave, San Francisco, CA, 94109'
p760
aS'84 2nd St, San Francisco, CA, 94105'
p761
aS'131 Gough St, San Francisco, CA, 94102'
p762
aS'56 Belden Pl, San Francisco, CA, 94104'
p763
aS'3913 24th St, San Francisco, CA, 94114'
p764
aS'3521 20th St, San Francisco, CA, 94110'
p765
aS'667-669 Commercial St, San Francisco, CA, 94111'
p766
aS'2400 Folsom St, San Francisco, CA, 94110'
p767
aS'240 Front St, San Francisco, CA, 94111'
p768
aS'3940 Judah St, San Francisco, CA, 94122'
p769
aS'Pier 15, San Francisco, CA, 94111'
p770
aS'545 Point Lobos Ave, San Francisco, CA, 94121'
p771
aS'439 Powell St, San Francisco, CA, 94102'
p772
aS'1419 Fillmore St, San Francisco, CA, 94115'
p773
aS'126 Sutter St, San Francisco, CA, 94104'
p774
aS'1020 Market Street, San Francisco, CA, 94102'
p775
aS'1994 Lombard St, San Francisco, CA, 94123'
p776
aS'Pier 2 Embarcadero St, San Francisco, CA, 94111'
p777
aS'2501 Mariposa St, San Francisco, CA, 94110'
p778
aS'2300 16th St, San Francisco, CA, 94103'
p779
aS'Location Varies, San Francisco, CA, 94107'
p780
aS'1082 Folsom St, San Francisco, CA, 94103'
p781
aS'2797 16th St, San Francisco, CA, 94103'
p782
aS'1326 9th Ave, San Francisco, CA, 94122'
p783
aS'186 2nd St, San Francisco, CA, 94105'
p784
aS'708 Bush St, San Francisco, CA, 94108'
p785
aS'4763 Mission St , San Francisco, CA, 94112'
p786
aS'1499 Valencia St, San Francisco, CA, 94110'
p787
aS'108 S Park St, San Francisco, CA, 94107'
p788
aS'620 Treat Ave, San Francisco, CA, 94110'
p789
aS'1640 Haight St, San Francisco, CA, 94117'
p790
aS'1401 Polk St, San Francisco, CA, 94109'
p791
aS'138 6th St, San Francisco, CA, 94103'
p792
aS'3640 Sacramento St, San Francisco, CA, 94118'
p793
aS'2263 Chestnut St, San Francisco, CA, 94123'
p794
aS'3600 16th St, San Francisco, CA, 94114'
p795
aS'1270 Valencia St, San Francisco, CA, 94110'
p796
aS'501 Hayes St, San Francisco, CA, 94102'
p797
aS'3583 16th St, San Francisco, CA, 94114'
p798
aS'100 W Portal Ave, San Francisco, CA, 94127'
p799
aS'120 4th St, San Francisco, CA, 94103'
p800
aS'1231 Market St, San Francisco, CA, 94103'
p801
aS'1255 Battery St, San Francisco, CA, 94111'
p802
aS'1298 Howard St, San Francisco, CA, 94103'
p803
aS'1390 Market St, San Francisco, CA, 94102'
p804
aS'1401 Van Ness Ave, San Francisco, CA, 94109'
p805
aS'1501 Fillmore St, San Francisco, CA, 94115'
p806
aS'1750 Divisadero St, San Francisco, CA, 94115'
p807
aS'1799 Fulton St, San Francisco, CA, 94117'
p808
aS'1800 Irving St, San Francisco, CA, 94122'
p809
aS'1899 Union St, San Francisco, CA, 94123'
p810
aS'201 3rd St, San Francisco, CA, 94103'
p811
aS'201 Powell St, San Francisco, CA, 94102'
p812
aS'210 Spear St, San Francisco, CA, 94105'
p813
aS'2132 Chestnut St, San Francisco, CA, 94123'
p814
aS'2165 Polk St, San Francisco, CA, 94109'
p815
aS'222 Mason St, San Francisco, CA, 94102'
p816
aS'2222 Fillmore St, San Francisco, CA, 94115'
p817
aS'2300 16th St, San Francisco, CA, 94103'
p818
aS'2435 California St, San Francisco, CA, 94115'
p819
aS'27 Drumm St, San Francisco, CA, 94111'
p820
aS'2727 Mariposa St, San Francisco, CA, 94110'
p821
aS'280 King St, San Francisco, CA, 94107'
p822
aS'295 California St, San Francisco, CA, 94111'
p823
aS'3251 20th Ave, San Francisco, CA, 94132'
p824
aS'350 Parnassus Ave, San Francisco, CA, 94117'
p825
aS'359 Grant Ave, San Francisco, CA, 94108'
p826
aS'3595 California St, San Francisco, CA, 94118'
p827
aS'36 2nd St, San Francisco, CA, 94105'
p828
aS'3735 Buchanan St, San Francisco, CA, 94123'
p829
aS'390 Stockton St, San Francisco, CA, 94108'
p830
aS'398 Market St, San Francisco, CA, 94111'
p831
aS'3995 24th St, San Francisco, CA, 94114'
p832
aS'4094 18th St, San Francisco, CA, 94114'
p833
aS'425 Battery St, San Francisco, CA, 94111'
p834
aS'44 Montgomery St, San Francisco, CA, 94104'
p835
aS'442 Geary St, San Francisco, CA, 94102'
p836
aS'490 Brannan St, San Francisco, CA, 94107'
p837
aS'499 Bay St, San Francisco, CA, 94133'
p838
aS'52 California St, San Francisco, CA, 94111'
p839
aS'5290 Diamond Heights Blvd, San Francisco, CA, 94131'
p840
aS'555 California St, San Francisco, CA, 94104'
p841
aS'675 Portola Dr, San Francisco, CA, 94127'
p842
aS'680 Beach St, San Francisco, CA, 94109'
p843
aS'689 Townsend St, San Francisco, CA, 94103'
p844
aS'701 Battery St, San Francisco, CA, 94111'
p845
aS'74 New Montgomery St, San Francisco, CA, 94105'
p846
aS'744 Irving St, San Francisco, CA, 94122'
p847
aS'780 Market St, San Francisco, CA, 94102'
p848
aS'865 Market St, San Francisco, CA, 94103'
p849
aS'99 Jackson St, San Francisco, CA, 94111'
p850
aS'932 Geneva Ave, San Francisco, CA, 94112'
p851
aS'1529 Fillmore St, San Francisco, CA, 94115'
p852
aS'450 Rhode Island St, San Francisco, CA, 94103'
p853
aS'731 Clement St, San Francisco, CA, 94118'
p854
aS'499 Illinois St, San Francisco, CA, 94158'
p855
aS'2036 Lombard St, San Francisco, CA, 94123'
p856
aS'1896 Hyde St, San Francisco, CA, 94109'
p857
aS'203 Octavia Blvd, San Francisco, CA, 94102'
p858
aS'2141 Polk St, San Francisco, CA, 94109'
p859
aS'2788 Mission St, San Francisco, CA, 94110'
p860
aS'408 Montgomery St., San Francisco, CA, 94104'
p861
aS'423 Bush St, San Francisco, CA, 94108'
p862
aS'483 Sacramento St, San Francisco, CA, 94104'
p863
aS'2238 Geary Blvd, San Francisco, CA, 94115'
p864
aS'2623 San Bruno Ave, San Francisco, CA, 94134'
p865
aS'1114 Bryant St, San Francisco, CA, 94103'
p866
aS'2304 Market St, San Francisco, CA, 94114'
p867
aS'525 Laguna St, San Francisco, CA, 94102'
p868
aS'657 Harrison St, San Francisco, CA, 94107'
p869
aS'700 Sutter St, San Francisco, CA, 94109'
p870
aS'798 Sutter St, San Francisco, CA, 94109'
p871
aS'3414 22nd St, San Francisco, CA, 94110'
p872
aS'Union Hyde, San Francisco, CA, 94102'
p873
aS'431 23rd Ave, San Francisco, CA, 94121'
p874
aS'25 Van Ness Ave, San Francisco, CA, 94102'
p875
aS'845 Market St, San Francisco, CA, 94103'
p876
aS'1077 Mission St, San Francisco, CA, 94103'
p877
aS'724 La Playa St, San Francisco, CA, 94121'
p878
aS'240 California St, San Francisco, CA, 94111'
p879
aS'1522 Fillmore St, San Francisco, CA, 94115'
p880
aS'1516 Broadway, San Francisco, CA, 94111'
p881
aS'206 Jefferson St, San Francisco, CA, 94133'
p882
aS'600 Guerrero St, San Francisco, CA, 94110'
p883
aS'244 Gough St, San Francisco, CA, 94102'
p884
aS'582 Washington St, San Francisco, CA, 94111'
p885
aS'2250 Irving St, San Francisco, CA, 94122'
p886
aS'1530 Howard St, San Francisco, CA, 94103'
p887
aS'312 Harriet St, San Francisco, CA, 94103'
p888
aS'3129 Clement St, San Francisco, CA, 94121'
p889
aS'431 Natoma St, San Francisco, CA, 94103'
p890
aS'854 Geary St, San Francisco, CA, 94109'
p891
aS'30 Fremont St, San Francisco, CA, 94105'
p892
aS'1128 Taraval St, San Francisco, CA, 94116'
p893
aS'1 Zoo Rd, San Francisco, CA, 94132'
p894
aS'1725 Haight St, San Francisco, CA, 94117'
p895
aS'1 South Park, San Francisco, CA, 94107'
p896
aS'490 Geary St, San Francisco, CA, 94102'
p897
aS'1900 Polk St, San Francisco, CA, 94109'
p898
aS'441 Clement St, San Francisco, CA, 94118'
p899
aS'3218 Mission St, San Francisco, CA, 94110'
p900
aS'2222 Polk St, San Francisco, CA, 94109'
p901
aS'3166 Buchanan St, San Francisco, CA, 94123'
p902
aS'1787 Union St, San Francisco, CA, 94123'
p903
aS'714 Montgomery St, San Francisco, CA, 94111'
p904
aS'417 Stockton St, San Francisco, CA, 94108'
p905
aS'155 South Park St, San Francisco, CA, 94107'
p906
aS'1299 Pacific Ave, San Francisco, CA, 94109'
p907
aS'251 Geary St, San Francisco, CA, 94102'
p908
aS'1090 Point Lobos Ave, San Francisco, CA, 94121'
p909
aS'101 Montgomery St, San Francisco, CA, 94129'
p910
aS'5 Masonic Ave, San Francisco, CA, 94118'
p911
aS'829 Mission St, San Francisco, CA, 94103'
p912
aS'Pier 39, San Francisco, CA, 94133'
p913
aS'1132 Valencia St, San Francisco, CA, 94110'
p914
aS'1755 Polk St, San Francisco, CA, 94109'
p915
aS'490 Geary St, San Francisco, CA, 94102'
p916
aS'1500 California St, San Francisco, CA, 94109'
p917
aS'2 New Montgomery St, San Francisco, CA, 94105'
p918
aS'3251 20th Ave, San Francisco, CA, 94132'
p919
aS'799 Bryant St, San Francisco, CA, 94107'
p920
aS'783 Haight St, San Francisco, CA, 94117'
p921
aS'690 Mission St, San Francisco, CA, 94105'
p922
aS'2016 Fillmore St, San Francisco, CA, 94115'
p923
aS'2 Embarcadero Ctr, San Francisco, CA, 94111'
p924
aS'716 Columbus Ave, San Francisco, CA, 94133'
p925
aS'5251 3rd St, San Francisco, CA, 94124'
p926
aS'998 Guerrero St, San Francisco, CA, 94110'
p927
aS'181 3rd St, San Francisco, CA, 94105'
p928
aS'655 Montgomery St, San Francisco, CA, 94111'
p929
aS'2323 Van Ness Ave, San Francisco, CA, 94109'
p930
aS'115 New Montgomery St, San Francisco, CA, 94105'
p931
aS'550 Geary St, San Francisco, CA, 94102'
p932
aS'335 Powell St, San Francisco, CA, 94102'
p933
aS'2 New Montgomery St, San Francisco, CA, 94105'
p934
aS'Pier 3, Embarcadero, San Francisco, CA, 94111'
p935
aS'1525 Fillmore St, San Francisco, CA, 94115'
p936
aS'851 Beach St, San Francisco, CA, 94133'
p937
aS'855 Terry Francois St, San Francisco, CA, 94107'
p938
aS'2099 Folsom St, San Francisco, CA, 94110'
p939
aS'150 Stockton St, San Francisco, CA, 94108'
p940
aS'301 Sacramento St, San Francisco, CA, 94111'
p941
aS'800 Post St, San Francisco, CA, 94109'
p942
aS'220 Bush St, San Francisco, CA, 94104'
p943
aS'Pier 15, San Francisco, CA, 94111'
p944
aS'37 New Montgomery St, San Francisco, CA, 94105'
p945
aS'1000 Van Ness Ave, San Francisco, CA, 94109'
p946
aS'1795 Geary St, San Francisco, CA, 94109'
p947
aS'1707 Powell St, San Francisco, CA, 94133'
p948
aS'Location Varies, San Francisco, CA, 94111'
p949
aS'55 Music Concourse Dr, San Francisco, CA, 94118'
p950
aS'2231 Chestnut St, San Francisco, CA, 94123'
p951
aS'753 Alabama St, San Francisco, CA, 94110'
p952
aS'777 Valencia St, San Francisco, CA, 94110'
p953
aS'3333 California St, San Francisco, CA, 94118'
p954
aS'780 Mission St, San Francisco, CA, 94103'
p955
aS'1152 Valencia St, San Francisco, CA, 94110'
p956
aS'1582 Folsom St, San Francisco, CA, 94103'
p957
aS'8 Mint Plaza, San Francisco, CA, 94103'
p958
aS'3108 16th St, San Francisco, CA, 94103'
p959
aS'15005 Ventura Blvd, Sherman Oaks, CA, 94103'
p960
aS'1601 Polk St, San Francisco, CA, 94109'
p961
aS'1748 Church St, San Francisco, CA, 94131'
p962
aS'836 Irving St, San Francisco, CA, 94122'
p963
aS'1098 Howard St, San Francisco, CA, 94103'
p964
aS'2 Perry St, San Francisco, CA, 94107'
p965
aS'2500 Geary Blvd, San Francisco, CA, 94115'
p966
aS'729 Portola Dr, San Francisco, CA, 94127'
p967
aS'342 Howard St, San Francisco, CA, 94105'
p968
aS'2 Townsend St, San Francisco, CA, 94107'
p969
aS'181 3rd St, San Francisco, CA, 94103'
p970
aS'3010 20th St, San Francisco, CA, 94110'
p971
aS'1155 Folsom St, San Francisco, CA, 94103'
p972
aS'1400 Taraval St, San Francisco, CA, 94116'
p973
aS'140 New Montgomery St, San Francisco, CA, 94105'
p974
aS'3966 24th St, San Francisco, CA, 94114'
p975
aS'401 Haight St, San Francisco, CA, 94117'
p976
aS'579 Hayes St, San Francisco, CA, 94102'
p977
aS'2798 Diamond St, San Francisco, CA, 94131'
p978
aS'Location Varies, San Francisco, CA, 94102'
p979
aS'2184 Union St, San Francisco, CA, 94123'
p980
aS'245 Balboa St, San Francisco, CA, 94118'
p981
aS'1945 Hyde St, San Francisco, CA, 94109'
p982
aS'2814 19th St, San Francisco, CA, 94110'
p983
aS'1160 Polk St, San Francisco, CA, 94109'
p984
aS'1096 S Van Ness Ave, San Francisco, CA, 94110'
p985
aS'584 Valencia St, San Francisco, CA, 94110'
p986
aS'1525 Folsom St, San Francisco, CA, 94107'
p987
aS'671 Broadway, San Francisco, CA, 94133'
p988
aS'495 Geary St, San Francisco, CA, 94102'
p989
aS'2323 Polk St, San Francisco, CA, 94109'
p990
aS'360 Ritch St, San Francisco, CA, 94107'
p991
aS'359 Divisidero St, San Francisco, CA, 94117'
p992
aS'125 3rd St, San Francisco, CA, 94103'
p993
aS'Location Varies, San Francisco, CA, 94103'
p994
aS'381 S Van Ness Ave, San Francisco, CA, 94103'
p995
aS'4942 3rd St, San Francisco, CA, 94124'
p996
aS'568 Sacramento St, San Francisco, CA, 94111'
p997
aS'Location Varies, San Francisco, CA, 94105'
p998
aS'700 S Van Ness Ave, San Francisco, CA, 94110'
p999
aS'2801 California St, San Francisco, CA, 94115'
p1000
aS'422 Haight St, San Francisco, CA, 94117'
p1001
aS'Pier 39, San Francisco, CA, 94133'
p1002
aS'3150 24th St, San Francisco, CA, 94110'
p1003
aS'736 Mission St, San Francisco, CA, 94103'
p1004
aS'1220 16th St, San Francisco, CA, 94107'
p1005
aS'2257 Chestnut St, San Francisco, CA, 94123'
p1006
aS'293 Bay Shore Blvd, San Francisco, CA, 94124'
p1007
aS'5149 3rd St, San Francisco, CA, 94124'
p1008
aS'1700 Owens St, San Francisco, CA, 94158'
p1009
aS'833 Mission Street, San Francisco, CA, 94103'
p1010
aS'600 3rd St, San Francisco, CA, 94107'
p1011
aS'21 Drumm St, San Francisco, CA, 94111'
p1012
aS'480 Sutter St, San Francisco, CA, 94108'
p1013
aS'685 Market St, San Francisco, CA, 94105'
p1014
a.