(lp0
I0
aI16
aI53
aI136
aI234
aI289
aI449
aI482
aI560
aI588
aI618
aI680
aI716
aI761
aI778
aI801
aI915
aI955
aI998
aI1028
aI1055
aI1125
aI1187
aI1295
aI1372
aI1409
aI1497
aI1614
aI1662
aI1698
aI1711
aI1756
aI1880
aI2019
aI2069
aI2340
aI2374
aI2382
aI2516
aI2541
aI2589
aI2629
aI2779
aI2835
aI2876
aI2949
aI3077
aI3114
aI3330
aI3439
aI3510
aI3559
aI3586
aI3626
aI3819
aI3854
aI3873
aI3899
aI3957
aI4001
aI4032
aI4053
aI4215
aI4330
aI4488
aI4614
aI4639
aI4864
aI4896
aI5220
aI5288
aI5307
aI5386
aI5489
aI5503
aI5563
aI5610
aI5671
aI5825
aI6010
aI6246
aI6407
aI6459
aI6500
aI6611
aI6715
aI6786
aI6872
aI6933
aI6983
aI7040
aI7102
aI7147
aI7289
aI7305
aI7348
aI7402
aI7485
aI7601
aI7713
aI7721
aI7792
aI7891
aI7948
aI8025
aI8070
aI8246
aI8278
aI8422
aI8555
aI8619
aI8745
aI8861
aI8905
aI8950
aI9054
aI9174
aI9321
aI9474
aI9515
aI9604
aI9644
aI9758
aI9832
aI9872
aI10010
aI10022
aI10119
aI10229
aI10332
aI10419
aI10471
aI10539
aI10579
aI10698
aI10802
aI10847
aI10887
aI10933
aI10963
aI11052
aI11142
aI11207
aI11293
aI11345
aI11390
aI11452
aI11566
aI11611
aI11715
aI11881
aI11929
aI12026
aI12115
aI12196
aI12300
aI12348
aI12380
aI12421
aI12519
aI12543
aI12646
aI12735
aI12827
aI12939
aI12979
aI13084
aI13106
aI13129
aI13174
aI13205
aI13237
aI13256
aI13360
aI13452
aI13462
aI13468
aI13534
aI13643
aI13686
aI13790
aI13894
aI14028
aI14047
aI14131
aI14205
aI14245
aI14264
aI14283
aI14474
aI14563
aI14604
aI14788
aI14807
aI14826
aI14974
aI14999
aI15020
aI15037
aI15159
aI15284
aI15373
aI15564
aI15583
aI15673
aI15712
aI15809
aI15869
aI15973
aI16025
aI16129
aI16311
aI16415
aI16504
aI16592
aI16682
aI16796
aI16866
aI17057
aI17097
aI17122
aI17176
aI17326
aI17404
aI17432
aI17608
aI17676
aI17773
aI17821
aI17910
aI17929
aI17972
aI18036
aI18227
aI18389
aI18435
aI18451
aI18489
aI18618
aI18706
aI18897
aI18914
aI19018
aI19098
aI19126
aI19161
aI19180
aI19189
aI19226
aI19246
aI19391
aI19447
aI19473
aI19504
aI19553
aI19583
aI19689
aI19748
aI19778
aI19918
aI20111
aI20244
aI20278
aI20421
aI20508
aI20567
aI20671
aI20700
aI20764
aI20793
aI20800
aI20877
aI20997
aI21076
aI21246
aI21350
aI21393
aI21422
aI21457
aI21601
aI21633
aI21689
aI21760
aI21951
aI22023
aI22057
aI22076
aI22267
aI22404
aI22556
aI22664
aI22713
aI22802
aI22837
aI22898
aI22934
aI23060
aI23118
aI23239
aI23378
aI23442
aI23633
aI23824
aI23943
aI23989
aI24002
aI24035
aI24139
aI24276
aI24333
aI24524
aI24715
aI24817
aI24876
aI24946
aI25008
aI25128
aI25211
aI25250
aI25347
aI25389
aI25493
aI25518
aI25709
aI25746
aI25798
aI25902
aI25991
aI26182
aI26253
aI26322
aI26359
aI26550
aI26621
aI26718
aI26909
aI26973
aI27020
aI27211
aI27296
aI27385
aI27576
aI27634
aI27692
aI27883
aI27935
aI28010
aI28106
aI28196
aI28242
aI28342
aI28409
aI28475
aI28578
aI28620
aI28811
aI28883
aI28928
aI29119
aI29230
aI29349
aI29499
aI29557
aI29787
aI29978
aI30169
aI30188
aI30379
aI30406
aI30597
aI30637
aI30668
aI30859
aI30883
aI30982
aI31022
aI31213
aI31404
aI31595
aI31710
aI31776
aI31967
aI32019
aI32210
aI32401
aI32486
aI32677
aI32736
aI32927
aI33118
aI33309
aI33373
aI33424
aI33476
aI33531
aI33553
aI33744
aI33935
aI34000
aI34089
aI34158
aI34183
aI34226
aI34417
aI34608
aI34799
aI34990
aI35043
aI35092
aI35144
aI35175
aI35262
aI35296
aI35323
aI35369
aI35560
aI35580
aI35669
aI35860
aI36051
aI36242
aI36270
aI36461
aI36611
aI36715
aI36746
aI36937
aI37128
aI37319
aI37365
aI37461
aI37652
aI37843
aI38034
aI38139
aI38171
aI38228
aI38332
aI38384
aI38488
aI38534
aI38622
aI38678
aI38724
aI38851
aI38902
aI38918
aI38930
aI39002
aI39012
aI39020
aI39108
aI39127
aI39162
aI39172
aI39239
aI39273
aI39310
aI39338
aI39361
aI39409
aI39429
aI39486
aI39508
aI39530
aI39650
aI39687
aI39803
aI39835
aI39867
aI40127
aI40154
aI40263
aI40312
aI40351
aI40363
aI40483
aI40582
aI40612
aI40657
aI40748
aI40914
aI40957
aI41032
aI41110
aI41192
aI41213
aI41324
aI41402
aI41441
aI41454
aI41479
aI41586
aI41602
aI41686
aI41730
aI41852
aI41951
aI42062
aI42166
aI42269
aI42290
aI42412
aI42503
aI42558
aI42604
aI42610
aI42646
aI42694
aI42738
aI42834
aI42863
aI42880
aI42911
aI42929
aI42947
aI42977
aI42991
aI43025
aI43157
aI43205
aI43310
aI43334
aI43414
aI43494
aI43629
aI43653
aI43763
aI43848
aI43952
aI43960
aI43977
aI44047
aI44079
aI44228
aI44264
aI44278
aI44498
aI44567
aI44651
aI44723
aI45000
aI45095
aI45205
aI45228
aI45257
aI45299
aI45447
aI45508
aI45655
aI45703
aI45937
aI46004
aI46031
aI46033
aI46049
aI46068
aI46097
aI46140
aI46254
aI46263
aI46350
aI46381
aI46461
aI46484
aI46503
aI46521
aI46620
aI46662
aI46680
aI46740
aI46780
aI46919
aI47088
aI47126
aI47228
aI47300
aI47372
aI47554
aI47696
aI47733
aI47748
aI47774
aI48032
aI48168
aI48287
aI48388
aI48425
aI48570
aI48686
aI48744
aI48865
aI48988
aI49033
aI49125
aI49132
aI49143
aI49168
aI49260
aI49290
aI49354
aI49459
aI49526
aI49555
aI49576
aI49658
aI49727
aI49946
aI49964
aI49981
aI50046
aI50122
aI50140
aI50155
aI50189
aI50202
aI50216
aI50259
aI50297
aI50307
aI50421
aI50555
aI50658
aI50737
aI50800
aI50855
aI50941
aI51006
aI51100
aI51192
aI51236
aI51243
aI51267
aI51398
aI51505
aI51540
aI51584
aI51661
aI51760
aI51892
aI51899
aI51927
aI51960
aI52055
aI52061
aI52096
aI52180
aI52198
aI52281
aI52326
aI52425
aI52470
aI52492
aI52509
aI52536
aI52577
aI52637
aI52810
aI52867
aI52896
aI53070
aI53161
aI53284
aI53366
aI53387
aI53485
aI53510
aI53533
aI53629
aI53692
aI53744
aI53752
aI53770
aI53869
aI53966
aI53986
aI54466
aI54503
aI54519
aI54532
aI54558
aI54563
aI54634
aI54733
aI54758
aI54782
aI54851
aI54868
aI54994
aI55029
aI55060
aI55164
aI55255
aI55292
aI55355
aI55412
aI55433
aI55489
aI55522
aI55547
aI55555
aI55589
aI55632
aI55818
aI55853
aI55875
aI55931
aI56013
aI56117
aI56121
aI56129
aI56196
aI56205
aI56218
aI56268
aI56370
aI56392
aI56413
aI56469
aI56496
aI56542
aI56632
aI56712
aI56721
aI56827
aI56834
aI56843
aI56967
aI56982
aI57104
aI57117
aI57348
aI57565
aI57602
aI57834
aI57886
aI57975
aI58015
aI58142
aI58225
aI58278
aI58316
aI58425
aI58497
aI58587
aI58666
aI58755
aI58784
aI58824
aI58858
aI58965
aI59068
aI59157
aI59279
aI59326
aI59386
aI59482
aI59505
aI59533
aI59613
aI59695
aI59711
aI59792
aI59811
aI59908
aI59918
aI59988
aI60027
aI60065
aI60083
aI60097
aI60114
aI60155
aI60189
aI60210
aI60218
aI60246
aI60271
aI60322
aI60346
aI60406
aI60423
aI60490
aI60516
aI60572
aI60595
aI60680
aI60714
aI60802
aI60888
aI60985
aI61097
aI61125
aI61161
aI61222
aI61329
aI61426
aI61451
aI61537
aI61569
aI61616
aI61719
aI61833
aI61843
aI61937
aI61981
aI62044
aI62089
aI62193
aI62232
aI62281
aI62332
aI62439
aI62454
aI62481
aI62596
aI62660
aI62700
aI62717
aI62860
aI62973
aI63056
aI63189
aI63352
aI63410
aI63458
aI63567
aI63620
aI63689
aI63721
aI63774
aI63865
aI63883
aI63919
aI64110
aI64145
aI64203
aI64285
aI64406
aI64468
aI64489
aI64532
aI64620
aI64658
aI64779
aI64807
aI64904
aI65002
aI65126
aI65210
aI65344
aI65468
aI65516
aI65549
aI65627
aI65697
aI65757
aI65869
aI65905
aI65944
aI65956
aI66050
aI66128
aI66182
aI66315
aI66375
aI66413
aI66451
aI66548
aI66562
aI66620
aI66672
aI66703
aI66768
aI66830
aI66862
aI66918
aI66964
aI67002
aI67049
aI67101
aI67144
aI67214
aI67233
aI67248
aI67277
aI67323
aI67370
aI67374
aI67404
aI67477
aI67596
aI67659
aI67766
aI67815
aI67959
aI67991
aI68003
aI68075
aI68170
aI68221
aI68272
aI68292
aI68314
aI68331
aI68352
aI68384
aI68502
aI68578
aI68608
aI68630
aI68664
aI68753
aI68826
aI68848
aI68855
aI68863
aI68871
aI68878
aI68886
aI68956
aI69011
aI69070
aI69113
aI69127
aI69577
aI69757
aI69817
aI69842
aI69865
aI69956
aI69977
aI70010
aI70158
aI70251
aI70301
aI70311
aI70360
aI70428
aI70474
aI70502
aI70563
aI70604
aI70682
aI70706
aI70810
aI70831
aI70883
aI70909
aI70960
aI71006
aI71057
aI71191
aI71238
aI71275
aI71322
aI71368
aI71451
aI71474
aI71586
aI71630
aI71666
aI71740
aI71852
aI71947
aI72003
aI72048
aI72154
aI72189
aI72232
aI72322
aI72391
aI72444
aI72509
aI72540
aI72589
aI72656
aI72788
aI72829
aI72862
aI72897
aI72949
aI73074
aI73108
aI73138
aI73159
aI73219
aI73380
aI73450
aI73465
aI73536
aI73781
aI73802
aI73903
aI73924
aI73928
aI74000
aI74101
aI74117
aI74252
aI74375
aI74393
aI74437
aI74461
aI74478
aI74509
aI74545
aI74790
aI74839
aI74959
aI74970
aI74974
aI75005
aI75016
a.