(lp1
(lp2
S'1300 on Filmore'
p3
aS'1300 Fillmore St, San Francisco, CA, 94115'
p4
aa(lp5
S'1760'
p6
aS'1760 Polk St, San Francisco, CA, 94109'
p7
aa(lp8
S'18th Hour Cafe'
p9
aS'3674 18th St, San Francisco, CA, 94110'
p10
aa(lp11
S'20 Spot (Twenty Spot)'
p12
aS'3565 20th St, San Francisco, CA, 94110'
p13
aa(lp14
S'21st Amendment Brewery Cafe'
p15
aS'563 2nd St, San Francisco, CA, 94107'
p16
aa(lp17
S'398 Restaurant & Bar'
p18
aS'398 Geary St, San Francisco, CA, 94102'
p19
aa(lp20
S'3rd Street Grill'
p21
aS'695 3rd St, San Francisco, CA, 94107'
p22
aa(lp23
S'4505 Burgers & BBQ'
p24
aS'705 Divisadero St, San Francisco, CA, 94117'
p25
aa(lp26
S'4505 Meats'
p27
aS'Location Varies, San Francisco, CA, 94110'
p28
aa(lp29
S'456 Deli & Cafe'
p30
aS'456 Montgomery St, San Francisco, CA, 94104'
p31
aa(lp32
S'A Table'
p33
aS'101 Spear St, San Francisco, CA, 94105'
p34
aa(lp35
S'ABC Bakery Cafe'
p36
aS'2500 Noriega St, San Francisco, CA, 94122'
p37
aa(lp38
S'ABC Bakery Cafe'
p39
aS'650 Jackson St, San Francisco, CA, 94108'
p40
aa(lp41
S'AG Ferrari Foods'
p42
aS'3490 California St, San Francisco, CA, 94118'
p43
aa(lp44
S'AG Ferrari Foods'
p45
aS'688 Mission St, San Francisco, CA, 94105'
p46
aa(lp47
S'AK Subs'
p48
aS'397 8th St, San Francisco, CA, 94103'
p49
aa(lp50
S'AQ'
p51
aS'1085 Mission St, San Francisco, CA, 94103'
p52
aa(lp53
S'Absinthe'
p54
aS'398 Hayes St, San Francisco, CA, 94102'
p55
aa(lp56
S'Akiba'
p57
aS'3141 Clement St, San Francisco, CA, 94121'
p58
aa(lp59
S'Alamo Square Seafood Grill'
p60
aS'803 Fillmore St, San Francisco, CA, 94117'
p61
aa(lp62
S"Alfred's Steakhouse"
p63
aS'659 Merchant St, San Francisco, CA, 94111'
p64
aa(lp65
S'Alibi'
p66
aS'142 Minna St, San Francisco, CA, 94105'
p67
aa(lp68
S'Aliment'
p69
aS'786 Bush St, San Francisco, CA, 94108'
p70
aa(lp71
S'Alimento'
p72
aS'507 Columbus Ave, San Francisco, CA, 94133'
p73
aa(lp74
S'All Star Cafe'
p75
aS'550 Market St, San Francisco, CA, 94104'
p76
aa(lp77
S'Allstar Donuts & Burgers'
p78
aS'290 Golden Gate Ave, San Francisco, CA, 94102'
p79
aa(lp80
S'Alta CA'
p81
aS'1420 Market St, San Francisco, CA, 94103'
p82
aa(lp83
S'Ame'
p84
aS'689 Mission St, San Francisco, CA, 94105'
p85
aa(lp86
S'Amelie'
p87
aS'1754 Polk St, San Francisco, CA, 94109'
p88
aa(lp89
S'American Cafe '
p90
aS'955 Market Street, San Francisco, CA, 94103'
p91
aa(lp92
S'American Cupcake'
p93
aS'1919 Union St, San Francisco, CA, 94123'
p94
aa(lp95
S'American Eatery'
p96
aS'Ferry Plaza, San Francisco, CA, 94111'
p97
aa(lp98
S"Anabelle's Bar & Bistro"
p99
aS'68 4th St, San Francisco, CA, 94103'
p100
aa(lp101
S'Anchor & Hope'
p102
aS'83 Minna St, San Francisco, CA, 94105'
p103
aa(lp104
S'Andersen Bakery'
p105
aS'665 Market St, San Francisco, CA, 94105'
p106
aa(lp107
S"Andronico's Deli & Market"
p108
aS'1200 Irving St, San Francisco, CA, 94122'
p109
aa(lp110
S"Angelina's Cafe & Deli"
p111
aS'6000 California St, San Francisco, CA, 94121'
p112
aa(lp113
S"Anna's Teriyaki"
p114
aS'83 9th St, San Francisco, CA, 94103'
p115
aa(lp116
S"Annabelle's Bar & Bistro"
p117
aS'68 4th St, San Francisco, CA, 94103'
p118
aa(lp119
S"Annie's Hot Dogs & Pretzels"
p120
aS'899 Market St, San Francisco, CA, 94105'
p121
aa(lp122
S"Applebee's"
p123
aS'2770 Taylor St, San Francisco, CA, 94133'
p124
aa(lp125
S'Aquitaine'
p126
aS'175 Sutter St, San Francisco, CA, 94104'
p127
aa(lp128
S'Aracely'
p129
aS'1201 8th St, San Francisco, CA, 94107'
p130
aa(lp131
S"Arby's"
p132
aS'1581 Sloat Blvd, San Francisco, CA, 94132'
p133
aa(lp134
S'Archive Bar & Kitchen'
p135
aS'602 Mission St, San Francisco, CA, 94105'
p136
aa(lp137
S'Arguello Super Market'
p138
aS'782 Arguello Blvd, San Francisco, CA, 94118'
p139
aa(lp140
S"Art's Cafe"
p141
aS'747 Irving St, San Francisco, CA, 94122'
p142
aa(lp143
S'Atlas Cafe'
p144
aS'3049 20th St, San Francisco, CA, 94110'
p145
aa(lp146
S'Aurea'
p147
aS'905 California St, San Francisco, CA, 94108'
p148
aa(lp149
S"Avedano's"
p150
aS'237 Cortland Ave, San Francisco, CA, 94110'
p151
aa(lp152
S'B Restaurant and Bar'
p153
aS'720 Howard St, San Francisco, CA, 94103'
p154
aa(lp155
S'B Star'
p156
aS'410 Cortland Ave, San Francisco, CA, 94110'
p157
aa(lp158
S'BIX'
p159
aS'56 Gold St, San Francisco, CA, 94133'
p160
aa(lp161
S'Baby Blues BBQ'
p162
aS'3149 Mission St, San Francisco, CA, 94110'
p163
aa(lp164
S'Bacon Bacon'
p165
aS'205 A Frederick St, San Francisco, CA, 94117'
p166
aa(lp167
S'Baker Street Bistro'
p168
aS'2953 Baker St, San Francisco, CA, 94123'
p169
aa(lp170
S'Balancoire'
p171
aS'2565 Mission St, San Francisco, CA, 94110'
p172
aa(lp173
S'Balboa Cafe'
p174
aS'3199 Fillmore St, San Francisco, CA, 94123'
p175
aa(lp176
S'Balcony Bar at Sundance Kabuki Cinema'
p177
aS'1865 Post St, San Francisco, CA, 94115'
p178
aa(lp179
S'Bar 333 & Bistro'
p180
aS'333 Battery St, San Francisco, CA, 94111'
p181
aa(lp182
S'Bar 888'
p183
aS'888 Howard St, San Francisco, CA, 94103'
p184
aa(lp185
S'Bar Agricole'
p186
aS'355 11th St, San Francisco, CA, 94103'
p187
aa(lp188
S'Bar Jules'
p189
aS'609 Hayes St, San Francisco, CA, 94102'
p190
aa(lp191
S'Bar Tartine'
p192
aS'561 Valencia St, San Francisco, CA, 94110'
p193
aa(lp194
S"Barney's Gourmet Hamburgers"
p195
aS'3344 Steiner St, San Francisco, CA, 94123'
p196
aa(lp197
S"Barney's Gourmet Hamburgers"
p198
aS'4138 24th St, San Francisco, CA, 94114'
p199
aa(lp200
S'Bartlett Hall'
p201
aS'242 OFarrell St, San Francisco, CA, 94102'
p202
aa(lp203
S'Baskin-Robbins'
p204
aS'1539 Sloat Blvd, San Francisco, CA, 94132'
p205
aa(lp206
S'Baskin-Robbins'
p207
aS'2250 Irving St, San Francisco, CA, 94122'
p208
aa(lp209
S'Bay Watch Restaurant'
p210
aS'2150 Lombard St, San Francisco, CA, 94123'
p211
aa(lp212
S'Beach Chalet'
p213
aS'1000 Great Hwy, San Francisco, CA, 94121'
p214
aa(lp215
S'Beach Street Grill'
p216
aS'380 Beach St, San Francisco, CA, 94133'
p217
aa(lp218
S'Beachside'
p219
aS'4300 Judah St, San Francisco, CA, 94122'
p220
aa(lp221
S'Bean Bag Cafe'
p222
aS'601 Divisadero St, San Francisco, CA, 94117'
p223
aa(lp224
S'Beautifull'
p225
aS'3401 California St, San Francisco, CA, 94118'
p226
aa(lp227
S"Bechelli's Flower Market Cafe"
p228
aS'698 Brannan St, San Francisco, CA, 94107'
p229
aa(lp230
S"Beep's Burgers"
p231
aS'1051 Ocean Ave, San Francisco, CA, 94112'
p232
aa(lp233
S'Belly Burgers'
p234
aS'5740 Geary Blvd, San Francisco, CA, 94121'
p235
aa(lp236
S'Belmar - La Gallinita'
p237
aS'2989 24th St, San Francisco, CA, 94110'
p238
aa(lp239
S"Ben & Jerry's"
p240
aS'79 Jefferson St, San Francisco, CA, 94133'
p241
aa(lp242
S"Bender's Bar & Grill"
p243
aS'806 S Van Ness Ave, San Francisco, CA, 94110'
p244
aa(lp245
S'Bergerac'
p246
aS'316 11th St, San Francisco, CA, 94103'
p247
aa(lp248
S'Bernal Star'
p249
aS'410 Cortland Ave, San Francisco, CA, 94110'
p250
aa(lp251
S'Bi-Rite Market'
p252
aS'3639 18th St, San Francisco, CA, 94110'
p253
aa(lp254
S'Bi-Rite Market'
p255
aS'550 Divisadero St, San Francisco, CA, 94117'
p256
aa(lp257
S'Biergarten'
p258
aS'424 Octavia Blvd, San Francisco, CA, 94102'
p259
aa(lp260
S'Big 4 ( Big Four)'
p261
aS'1075 California St, San Francisco, CA, 94108'
p262
aa(lp263
S"Big Chef Tom's Belly Burgers"
p264
aS'1550 Howard St, San Francisco, CA, 94103'
p265
aa(lp266
S'Big Mouth Burgers'
p267
aS'3392 24th St, San Francisco, CA, 94110'
p268
aa(lp269
S"Bill's Place"
p270
aS'2315 Clement St, San Francisco, CA, 94121'
p271
aa(lp272
S'Bin 38'
p273
aS'3232 Scott St, San Francisco, CA, 94123'
p274
aa(lp275
S'Bin 55'
p276
aS'780 Mission St, San Francisco, CA, 94103'
p277
aa(lp278
S'Bisou'
p279
aS'2367 Market St, San Francisco, CA, 94114'
p280
aa(lp281
S'Bistro 10UN'
p282
aS'1130 Market St, San Francisco, CA, 94102'
p283
aa(lp284
S'Bistro Aix'
p285
aS'3340 Steiner St, San Francisco, CA, 94123'
p286
aa(lp287
S'Bistro Boudin'
p288
aS'160 Jefferson St, San Francisco, CA, 94133'
p289
aa(lp290
S'Bistro Burger'
p291
aS'201 Mission St, San Francisco, CA, 94105'
p292
aa(lp293
S'Bistro Burger'
p294
aS'333 Bush St, San Francisco, CA, 94104'
p295
aa(lp296
S'Bistro Burger'
p297
aS'343 Sansome St, San Francisco, CA, 94104'
p298
aa(lp299
S'Bistro Burger'
p300
aS'845 Market St, San Francisco, CA, 94103'
p301
aa(lp302
S'Bistro Central Parc'
p303
aS'560 Central Ave, San Francisco, CA, 94117'
p304
aa(lp305
S'Bistro Gambrinus'
p306
aS'1813 Fulton St, San Francisco, CA, 94117'
p307
aa(lp308
S"Bistro L'Aviateur"
p309
aS'2850 21st St, San Francisco, CA, 94110'
p310
aa(lp311
S'Bistro SF Grill'
p312
aS'2819 California St, San Francisco, CA, 94115'
p313
aa(lp314
S'Blackpoint Cafe'
p315
aS'882 North Point St, San Francisco, CA, 94109'
p316
aa(lp317
S'Blu Restaurant and Cafe'
p318
aS'747 Market St, San Francisco, CA, 94103'
p319
aa(lp320
S'Blue Front Cafe'
p321
aS'1430 Haight St, San Francisco, CA, 94117'
p322
aa(lp323
S'Blueprint Tap Room'
p324
aS'680 8th St, San Francisco, CA, 94103'
p325
aa(lp326
S'Blush Wine Bar'
p327
aS'476 Castro St, San Francisco, CA, 94114'
p328
aa(lp329
S'Boccalone'
p330
aS'Ferry Plaza, San Francisco, CA, 94111'
p331
aa(lp332
S'Bonanza Restaurant'
p333
aS'16 Toland St, San Francisco, CA, 94124'
p334
aa(lp335
S'Boogaloos'
p336
aS'3296 22nd St, San Francisco, CA, 94110'
p337
aa(lp338
S'Boston Market'
p339
aS'2300 16th St, San Francisco, CA, 94103'
p340
aa(lp341
S'Bouche'
p342
aS'603 Bush St, San Francisco, CA, 94108'
p343
aa(lp344
S'Boudin Bakery'
p345
aS'25 Van Ness Ave, San Francisco, CA, 94102'
p346
aa(lp347
S'Boudin Bakery'
p348
aS'Pier 39, Space 5-Q, San Francisco, CA, 94133'
p349
aa(lp350
S'Boudin Sourdough Bakery & Cafe'
p351
aS'160 Jefferson St, San Francisco, CA, 94133'
p352
aa(lp353
S'Boudin Sourdough Bakery & Cafe'
p354
aS'19th Ave & Winston St, San Francisco, CA, 94103'
p355
aa(lp356
S'Boudin Sourdough Bakery & Cafe'
p357
aS'399 10th Ave, San Francisco, CA, 94118'
p358
aa(lp359
S'Boudin Sourdough Bakery & Cafe'
p360
aS'4 Embarcadero Ctr, San Francisco, CA, 94111'
p361
aa(lp362
S'Boulevard'
p363
aS'1 Mission St, San Francisco, CA, 94105'
p364
aa(lp365
S'Brannan Street Cafe'
p366
aS'274 Brannan St, San Francisco, CA, 94107'
p367
aa(lp368
S'Brasserie S&P'
p369
aS'222 Sansome St, San Francisco, CA, 94104'
p370
aa(lp371
S'Bravo Pizza'
p372
aS'5145 Mission St, San Francisco, CA, 94112'
p373
aa(lp374
S"Brenda's French Soul Food"
p375
aS'652 Polk St, San Francisco, CA, 94102'
p376
aa(lp377
S'Broadway Dim Sum'
p378
aS'684 Broadway, San Francisco, CA, 94133'
p379
aa(lp380
S'Broadway Pizza'
p381
aS'448 Broadway, San Francisco, CA, 94133'
p382
aa(lp383
S'Broken Record'
p384
aS'1166 Geneva Ave, San Francisco, CA, 94112'
p385
aa(lp386
S"Bruno's"
p387
aS'2389 Mission St, San Francisco, CA, 94110'
p388
aa(lp389
S'Buckhorn Grill'
p390
aS'101 4th St, San Francisco, CA, 94103'
p391
aa(lp392
S'Buckhorn Grill'
p393
aS'4 Embarcadero Ctr, San Francisco, CA, 94111'
p394
aa(lp395
S'Buckhorn Grill'
p396
aS'4 Perry St, San Francisco, CA, 94107'
p397
aa(lp398
S'Buckhorn Grill'
p399
aS'865 Market St, San Francisco, CA, 94103'
p400
aa(lp401
S'Buffalo Burgers'
p402
aS'5317 Geary Blvd, San Francisco, CA, 94121'
p403
aa(lp404
S'Bullshead'
p405
aS'840 Ulloa St, San Francisco, CA, 94127'
p406
aa(lp407
S'Burger Bar'
p408
aS'251 Geary St, San Francisco, CA, 94102'
p409
aa(lp410
S'Burger Gourmet'
p411
aS'101 Spear St, San Francisco, CA, 94105'
p412
aa(lp413
S'Burger House'
p414
aS'237 Powell St, San Francisco, CA, 94102'
p415
aa(lp416
S'Burger Joint'
p417
aS'807 Valencia St, San Francisco, CA, 94110'
p418
aa(lp419
S'Burger King'
p420
aS'1298 Howard St, San Francisco, CA, 94103'
p421
aa(lp422
S'Burger King'
p423
aS'1690 Valencia St, San Francisco, CA, 94110'
p424
aa(lp425
S'Burger King'
p426
aS'1701 Fillmore St, San Francisco, CA, 94115'
p427
aa(lp428
S'Burger King'
p429
aS'245 Bay Shore Blvd, San Francisco, CA, 94124'
p430
aa(lp431
S'Burger King'
p432
aS'25 Van Ness Ave, San Francisco, CA, 94102'
p433
aa(lp434
S'Burger King'
p435
aS'2739 Taylor St, San Francisco, CA, 94133'
p436
aa(lp437
S'Burger King'
p438
aS'2978 16th St, San Francisco, CA, 94103'
p439
aa(lp440
S'Burger King'
p441
aS'35 Powell St, San Francisco, CA, 94102'
p442
aa(lp443
S'Burger King'
p444
aS'360 Bay St, San Francisco, CA, 94133'
p445
aa(lp446
S'Burger King'
p447
aS'3900 Geary Blvd, San Francisco, CA, 94118'
p448
aa(lp449
S'Burger King'
p450
aS'4780 Mission St, San Francisco, CA, 94112'
p451
aa(lp452
S'Burger King'
p453
aS'724 La Playa St, San Francisco, CA, 94121'
p454
aa(lp455
S'Burger King'
p456
aS'819 Van Ness Ave, San Francisco, CA, 94109'
p457
aa(lp458
S'Burger Urge'
p459
aS'1599 Haight St, San Francisco, CA, 94117'
p460
aa(lp461
S'Burgermeister'
p462
aS'138 Church St, San Francisco, CA, 94114'
p463
aa(lp464
S'Burgermeister'
p465
aS'759 Columbus Ave, San Francisco, CA, 94133'
p466
aa(lp467
S'Burgermeister'
p468
aS'86 Carl St, San Francisco, CA, 94117'
p469
aa(lp470
S'CDXX'
p471
aS'5800 3rd Street, San Francisco, CA, 94124'
p472
aa(lp473
S'Cable Car Cafe'
p474
aS'519 Powell St, San Francisco, CA, 94108'
p475
aa(lp476
S'Cable Car City Pub & Cafe'
p477
aS'1 Hallidie Plz, San Francisco, CA, 94102'
p478
aa(lp479
S"Caesar's Cafe & Crepes"
p480
aS'208 Valencia St, San Francisco, CA, 94103'
p481
aa(lp482
S'Cafe Andree'
p483
aS'526 Sutter St, San Francisco, CA, 94102'
p484
aa(lp485
S'Cafe Bello'
p486
aS'2885 Diamond St, San Francisco, CA, 94131'
p487
aa(lp488
S'Cafe Benally'
p489
aS'1131 Taraval St, San Francisco, CA, 94116'
p490
aa(lp491
S'Cafe Bistro (Nordstroms)'
p492
aS'865 Market St, San Francisco, CA, 94103'
p493
aa(lp494
S'Cafe Claude'
p495
aS'7 Claude Ln, San Francisco, CA, 94108'
p496
aa(lp497
S'Cafe Claude Marina'
p498
aS'2120 Greenwich St, San Francisco, CA, 94123'
p499
aa(lp500
S'Cafe Du Soleil'
p501
aS'345 3rd St, San Francisco, CA, 94107'
p502
aa(lp503
S'Cafe Encore'
p504
aS'488 Post St, San Francisco, CA, 94102'
p505
aa(lp506
S'Cafe Europa'
p507
aS'4318 California St, San Francisco, CA, 94118'
p508
aa(lp509
S'Cafe Flore'
p510
aS'2298 Market St, San Francisco, CA, 94114'
p511
aa(lp512
S'Cafe Francisco'
p513
aS'2161 Powell St, San Francisco, CA, 94133'
p514
aa(lp515
S'Cafe GoLo'
p516
aS'1602 Lombard St, San Francisco, CA, 94123'
p517
aa(lp518
S'Cafe Jacqueline'
p519
aS'1454 Grant Ave, San Francisco, CA, 94133'
p520
aa(lp521
S'Cafe La Taza'
p522
aS'2475 Mission St, San Francisco, CA, 94110'
p523
aa(lp524
S'Cafe Leah'
p525
aS'25 Beale St, San Francisco, CA, 94105'
p526
aa(lp527
S'Cafe Leah 2'
p528
aS'77 Beale St, San Francisco, CA, 94105'
p529
aa(lp530
S'Cafe Lombard'
p531
aS'1424 Lombard St, San Francisco, CA, 94123'
p532
aa(lp533
S'Cafe Med'
p534
aS'201 Pine St, San Francisco, CA, 94104'
p535
aa(lp536
S'Cafe Meuse'
p537
aS'1400 Pacific Ave, San Francisco, CA, 94109'
p538
aa(lp539
S'Cafe Phoenix'
p540
aS'1234 Indiana St, San Francisco, CA, 94107'
p541
aa(lp542
S'Cafe Playfield'
p543
aS'1 Zoo Rd, San Francisco, CA, 94132'
p544
aa(lp545
S'Cafe Rain Tree'
p546
aS'118 West Portal Ave, San Francisco, CA, 94127'
p547
aa(lp548
S'Cafe Rain Tree'
p549
aS'654 Irving St, San Francisco, CA, 94122'
p550
aa(lp551
S'Cafe Taboo'
p552
aS'600 York St, San Francisco, CA, 94110'
p553
aa(lp554
S'Cafe Zazo'
p555
aS'64 14th St, San Francisco, CA, 94103'
p556
aa(lp557
S'Cafe Zoet'
p558
aS'520 Leavenworth St, San Francisco, CA, 94109'
p559
aa(lp560
S'Cafe at the Opera'
p561
aS'301 Van Ness Avenue, San Francisco, CA, 94102'
p562
aa(lp563
S'Cafe de la Presse'
p564
aS'352 Grant Ave, San Francisco, CA, 94108'
p565
aa(lp566
S'Caffe Museo'
p567
aS'151 3rd St, San Francisco, CA, 94103'
p568
aa(lp569
S'Caffe Union'
p570
aS'1830 Union St, San Francisco, CA, 94123'
p571
aa(lp572
S'Calibur'
p573
aS'68 W Portal Ave, San Francisco, CA, 94127'
p574
aa(lp575
S'California Crisp'
p576
aS'3251 20th Ave, San Francisco, CA, 94132'
p577
aa(lp578
S'Campton Place'
p579
aS'340 Stockton St, San Francisco, CA, 94108'
p580
aa(lp581
S'Careme 350'
p582
aS'350 Rhode Island St, San Francisco, CA, 94103'
p583
aa(lp584
S"Carl's Jr."
p585
aS'1 Hallidie Plz, San Francisco, CA, 94102'
p586
aa(lp587
S"Carl's Jr."
p588
aS'10 United Nations Plz, San Francisco, CA, 94102'
p589
aa(lp590
S"Carl's Jr."
p591
aS'4 Embarcadero Ctr, San Francisco, CA, 94111'
p592
aa(lp593
S'Cassava Bakery & Cafe'
p594
aS'3519 Balboa St, San Francisco, CA, 94121'
p595
aa(lp596
S'Castagna'
p597
aS'2015 Chestnut St, San Francisco, CA, 94123'
p598
aa(lp599
S"Causwell's"
p600
aS'2346 Chestnut St, San Francisco, CA, 94123'
p601
aa(lp602
S'Cefiore'
p603
aS'59 New Montgomery St, San Francisco, CA, 94105'
p604
aa(lp605
S'Central Kitchen'
p606
aS'3000 20th St, San Francisco, CA, 94110'
p607
aa(lp608
S'Chambers Eat & Drink'
p609
aS'601 Eddy St, San Francisco, CA, 94109'
p610
aa(lp611
S'Chapeau!'
p612
aS'126 Clement St, San Francisco, CA, 94118'
p613
aa(lp614
S"Charlie's Deli Cafe"
p615
aS'3202 Folsom St, San Francisco, CA, 94117'
p616
aa(lp617
S'Chaya Brasserie'
p618
aS'132 The Embarcadero, San Francisco, CA, 94105'
p619
aa(lp620
S'Cheese Plus'
p621
aS'2001 Polk St, San Francisco, CA, 94109'
p622
aa(lp623
S'Chestnut Diner'
p624
aS'1312 Chestnut St, San Francisco, CA, 94123'
p625
aa(lp626
S'Chez Julien'
p627
aS'100 Bush St, San Francisco, CA, 94104'
p628
aa(lp629
S'Chez Maman'
p630
aS'1453 18th St, San Francisco, CA, 94107'
p631
aa(lp632
S'Chez Maman'
p633
aS'2223 Union St, San Francisco, CA, 94123'
p634
aa(lp635
S'Chez Maman'
p636
aS'401 Gough St, San Francisco, CA, 94102'
p637
aa(lp638
S'Chez Papa'
p639
aS'4 Mint Plz, San Francisco, CA, 94103'
p640
aa(lp641
S'Chiotras'
p642
aS'858 Rhode Island St, San Francisco, CA, 94107'
p643
aa(lp644
S"Chloe's Cafe"
p645
aS'1399 Church St, San Francisco, CA, 94114'
p646
aa(lp647
S'ChouChou'
p648
aS'400 Dewey Blvd, San Francisco, CA, 94116'
p649
aa(lp650
S"Chouquet's"
p651
aS'2500 Washington St, San Francisco, CA, 94115'
p652
aa(lp653
S'Chow Church'
p654
aS'215 Church St, San Francisco, CA, 94114'
p655
aa(lp656
S'Chowder Hut Fresh Grill'
p657
aS'2890 Taylor St, San Francisco, CA, 94133'
p658
aa(lp659
S'Cigar Bar & Grill'
p660
aS'850 Montgomery St, San Francisco, CA, 94133'
p661
aa(lp662
S"Cindy's Market"
p663
aS'2084 Hayes Street, San Francisco, CA, 94117'
p664
aa(lp665
S'Circa'
p666
aS'2001 Chestnut St, San Francisco, CA, 94123'
p667
aa(lp668
S'Citizens Band'
p669
aS'1198 Folsom St, San Francisco, CA, 94103'
p670
aa(lp671
S'City Club of San Francisco'
p672
aS'155 Sansome St, San Francisco, CA, 94104'
p673
aa(lp674
S'City Gourmet'
p675
aS'590 3rd St, San Francisco, CA, 94107'
p676
aa(lp677
S'Citys Choice'
p678
aS'301 5th St, San Francisco, CA, 94107'
p679
aa(lp680
S"Clancey's Market & Deli"
p681
aS'3960 Irving St, San Francisco, CA, 94122'
p682
aa(lp683
S"Clare's"
p684
aS'3505 17th St, San Francisco, CA, 94110'
p685
aa(lp686
S'Claudine'
p687
aS'8 Claude Ln, San Francisco, CA, 94108'
p688
aa(lp689
S'Clement Street Bar & Grill'
p690
aS'708 Clement St, San Francisco, CA, 94118'
p691
aa(lp692
S'Clock Bar'
p693
aS'335 Powell St, San Francisco, CA, 94102'
p694
aa(lp695
S"Cobb's Comedy Club"
p696
aS'915 Columbus Ave, San Francisco, CA, 94133'
p697
aa(lp698
S'Cockscomb'
p699
aS'564 4th St, San Francisco, CA, 94107'
p700
aa(lp701
S'Cocola Bakery & Pastry'
p702
aS'865 Market St, San Francisco, CA, 94103'
p703
aa(lp704
S'Cocotte'
p705
aS'1521 Hyde St, San Francisco, CA, 94109'
p706
aa(lp707
S'Coi'
p708
aS'373 Broadway, San Francisco, CA, 94133'
p709
aa(lp710
S'Commonwealth'
p711
aS'2224 Mission St, San Francisco, CA, 94110'
p712
aa(lp713
S'Community Table'
p714
aS'3200 California St , San Francisco, CA, 94118'
p715
aa(lp716
S'Concordia Argonaut'
p717
aS'1142 Van Ness Ave, San Francisco, CA, 94109'
p718
aa(lp719
S'Continental Cafe & Deli'
p720
aS'845 Howard St, San Francisco, CA, 94103'
p721
aa(lp722
S'Cool Cravings'
p723
aS'1635 Divisadero St, San Francisco, CA, 94115'
p724
aa(lp725
S'Corner Bakery Cafe'
p726
aS'665 Market St, San Francisco, CA, 94105'
p727
aa(lp728
S'Corsagna Deli'
p729
aS'1668 Union St, San Francisco, CA, 94123'
p730
aa(lp731
S'Couchy Potatoes'
p732
aS'1251 20th Ave, San Francisco, CA, 94122'
p733
aa(lp734
S'Cove Cafe'
p735
aS'434 Castro St, San Francisco, CA, 94114'
p736
aa(lp737
S'Cowgirl Creamery Sidekick'
p738
aS'Ferry Plaza, San Francisco, CA, 94102'
p739
aa(lp740
S'Crepe Cone by Sophie'
p741
aS'684 King St, San Francisco, CA, 94107'
p742
aa(lp743
S'Crepe Express'
p744
aS'1476 Haight St, San Francisco, CA, 94117'
p745
aa(lp746
S'Crepe La Vie'
p747
aS'1727 Haight St, San Francisco, CA, 94177'
p748
aa(lp749
S'Crepe Madame'
p750
aS'685 Harrison St, San Francisco, CA, 94107'
p751
aa(lp752
S'Crepe O Chocolat'
p753
aS'75 Ofarrell St, San Francisco, CA, 94108'
p754
aa(lp755
S'Crepe Temptations'
p756
aS'2575 Judah St, San Francisco, CA, 94122'
p757
aa(lp758
S'Crepe and Curry'
p759
aS'5 Embarcadero Ctr, San Francisco, CA, 94111'
p760
aa(lp761
S'Creperie Saint Germain'
p762
aS'222 2nd St, San Francisco, CA, 94105'
p763
aa(lp764
S'Creperie Saint-Germain'
p765
aS'555 California St, San Francisco, CA, 94104'
p766
aa(lp767
S'Crepes A Go Go'
p768
aS'350 11th St, San Francisco, CA, 94103'
p769
aa(lp770
S'Crepes On Cole'
p771
aS'100 Carl St, San Francisco, CA, 94117'
p772
aa(lp773
S'Crepes Ooh La La'
p774
aS'1220 Polk St, San Francisco, CA, 94109'
p775
aa(lp776
S'Crepevine'
p777
aS'216 Church St, San Francisco, CA, 94114'
p778
aa(lp779
S'Crepevine'
p780
aS'624 Irving St, San Francisco, CA, 94122'
p781
aa(lp782
S'Crustacean'
p783
aS'1475 Polk St, San Francisco, CA, 94109'
p784
aa(lp785
S'Curbside Cafe'
p786
aS'2417 California St, San Francisco, CA, 94115'
p787
aa(lp788
S'Custom Burger'
p789
aS'121 7th St, San Francisco, CA, 94102'
p790
aa(lp791
S"Cybelle's Front Room"
p792
aS'1385 9th Ave, San Francisco, CA, 94122'
p793
aa(lp794
S"D'urso Italian Delicatessen"
p795
aS'236 Townsend St, San Francisco, CA, 94107'
p796
aa(lp797
S"Da Kine's Hawaiian Bbq"
p798
aS'4808 Mission St, San Francisco, CA, 94112'
p799
aa(lp800
S"Daddy Boy's Pizza"
p801
aS'4524 3rd St, San Francisco, CA, 94124'
p802
aa(lp803
S'Daily Grill'
p804
aS'347 Geary St, San Francisco, CA, 94102'
p805
aa(lp806
S"David's"
p807
aS'474 Geary St, San Francisco, CA, 94102'
p808
aa(lp809
S'De Young Museum Cafe'
p810
aS'50 Hagiwara Tea Garden Dr, San Francisco, CA, 94118'
p811
aa(lp812
S'Dear Mom (Fogcutter)'
p813
aS'2700 16th St, San Francisco, CA, 94103'
p814
aa(lp815
S'Delancey Street'
p816
aS'600 Embarcadero, San Francisco, CA, 94107'
p817
aa(lp818
S'Delessio Market & Bakery'
p819
aS'1695 Market St, San Francisco, CA, 94103'
p820
aa(lp821
S'Deli & ...'
p822
aS'124 Montgomery St, San Francisco, CA, 94104'
p823
aa(lp824
S'Delica'
p825
aS'1 Ferry Plaza, San Francisco, CA, 94111'
p826
aa(lp827
S'Delicioso Creperie'
p828
aS'2948 Folsom St, San Francisco, CA, 94110'
p829
aa(lp830
S'Delish Deli'
p831
aS'752 Van Ness Ave, San Francisco, CA, 94102'
p832
aa(lp833
S"Denny's"
p834
aS'1700 Post St, San Francisco, CA, 94115'
p835
aa(lp836
S"Denny's"
p837
aS'495 Beach St, San Francisco, CA, 94133'
p838
aa(lp839
S"Denny's"
p840
aS'816 Mission St, San Francisco, CA, 94103'
p841
aa(lp842
S'Diala Pizza 2'
p843
aS'2424 Mission St, San Francisco, CA, 94110'
p844
aa(lp845
S'Diamond Cafe'
p846
aS'751 Diamond St, San Francisco, CA, 94114'
p847
aa(lp848
S"Diller's"
p849
aS'348 Pine St, San Francisco, CA, 94104'
p850
aa(lp851
S'Dirty Habit'
p852
aS'12 4th St, San Francisco, CA, 94103'
p853
aa(lp854
S'Dobbs Ferry'
p855
aS'409 Gough St, San Francisco, CA, 94102'
p856
aa(lp857
S"Doc's Of The Bay"
p858
aS'Location Varies, San Francisco, CA, 94123'
p859
aa(lp860
S"Domino's Pizza"
p861
aS'1408 Fillmore St, San Francisco, CA, 94115'
p862
aa(lp863
S"Domino's Pizza"
p864
aS'3116 Noriega St, San Francisco, CA, 94122'
p865
aa(lp866
S"Domino's Pizza"
p867
aS'320 Bay Shore Blvd, San Francisco, CA, 94124'
p868
aa(lp869
S"Domino's Pizza"
p870
aS'5200 Geary Blvd, San Francisco, CA, 94118'
p871
aa(lp872
S"Domino's Pizza"
p873
aS'876 Geary St, San Francisco, CA, 94109'
p874
aa(lp875
S'Double Decker'
p876
aS'465 Grove St, San Francisco, CA, 94102'
p877
aa(lp878
S'Double Play'
p879
aS'2401 16th St, San Francisco, CA, 94103'
p880
aa(lp881
S'Dr. Teeth and the Electric Mayhem'
p882
aS'2323 Mission St, San Francisco, CA, 94110'
p883
aa(lp884
S'Drake'
p885
aS'508 4th St, San Francisco, CA, 94107'
p886
aa(lp887
S'Drumm Liquor & Deli'
p888
aS'15 Drumm St, San Francisco, CA, 94111'
p889
aa(lp890
S'Dusty Buns'
p891
aS'Location Varies, San Francisco, CA, 94103'
p892
aa(lp893
S'Dux'
p894
aS'780 Valencia St, San Francisco, CA, 94110'
p895
aa(lp896
S'Eagle Cafe'
p897
aS'Pier 39, San Francisco, CA, 94133'
p898
aa(lp899
S'Eat Curbside'
p900
aS'500 Mission St, San Francisco, CA, 94105'
p901
aa(lp902
S'Ebb Tide Cafe'
p903
aS'1500 S Van Ness Ave, San Francisco, CA, 94110'
p904
aa(lp905
S'Eclipse Cafe'
p906
aS'5 Embarcadero Ctr, San Francisco, CA, 94111'
p907
aa(lp908
S'Eden Lounge'
p909
aS'1692 Stockton St, San Francisco, CA, 94133'
p910
aa(lp911
S'Educated Palate'
p912
aS'88 4th St, San Francisco, CA, 94103'
p913
aa(lp914
S'Eleven O One'
p915
aS'1101 Polk St, San Francisco, CA, 94109'
p916
aa(lp917
S"Emo's Cafe"
p918
aS'201 Turk St, San Francisco, CA, 94102'
p919
aa(lp920
S'Eureka'
p921
aS'4063 18th St, San Francisco, CA, 94114'
p922
aa(lp923
S'EuroBistro'
p924
aS'Location Varies, San Francisco, CA, 94103'
p925
aa(lp926
S"Eva's Hawaiian Cafe"
p927
aS'731 Clement St, San Francisco, CA, 94118'
p928
aa(lp929
S'Fable'
p930
aS'558 Castro St, San Francisco, CA, 94114'
p931
aa(lp932
S'Farm:Table'
p933
aS'754 Post St, San Francisco, CA, 94109'
p934
aa(lp935
S'Fat Beli Deli'
p936
aS'2598 San Bruno Ave, San Francisco, CA, 94134'
p937
aa(lp938
S'Fat Slice'
p939
aS'1535 Haight St, San Francisco, CA, 94117'
p940
aa(lp941
S'Fatt Dog'
p942
aS'200 Pine St, San Francisco, CA, 94104'
p943
aa(lp944
S'Feed'
p945
aS'215 Fremont, San Francisco, CA, 94105'
p946
aa(lp947
S'Fins On the Hoof'
p948
aS'Location Varies, San Francisco, CA, 94103'
p949
aa(lp950
S'Fireburger'
p951
aS'2138 Irving St, San Francisco, CA, 94122'
p952
aa(lp953
S'Firefly'
p954
aS'4288 24th St, San Francisco, CA, 94114'
p955
aa(lp956
S'Firewood Cafe'
p957
aS'4248 18th St, San Francisco, CA, 94114'
p958
aa(lp959
S'First Crush'
p960
aS'101 Cyril Magnin St, San Francisco, CA, 94102'
p961
aa(lp962
S'Fish & Farm'
p963
aS'339 Taylor St, San Francisco, CA, 94102'
p964
aa(lp965
S"Fisherman's Pizzeria"
p966
aS'2800 Leavenworth St, San Francisco, CA, 94133'
p967
aa(lp968
S"Fishermen's Grotto #9"
p969
aS'2847 Taylor St, San Francisco, CA, 94133'
p970
aa(lp971
S'FiveTen Burger'
p972
aS'location varies, San Francisco, CA, 94103'
p973
aa(lp974
S'Fleur De Sel'
p975
aS'308 Kearny St, San Francisco, CA, 94108'
p976
aa(lp977
S"Flipper's"
p978
aS'482 Hayes St, San Francisco, CA, 94102'
p979
aa(lp980
S'Flour + Water'
p981
aS'2401 Harrison St, San Francisco, CA, 94110'
p982
aa(lp983
S'Fly Bar And Restaurant'
p984
aS'1085 Sutter St, San Francisco, CA, 94109'
p985
aa(lp986
S'Fog City'
p987
aS'1300 Battery St, San Francisco, CA, 94111'
p988
aa(lp989
S'Forbes Island'
p990
aS'Pier 39, San Francisco, CA, 94133'
p991
aa(lp992
S'Fort Mason Market & Deli'
p993
aS'1701 Greenwich St, San Francisco, CA, 94123'
p994
aa(lp995
S'Foundation Cafe'
p996
aS'335 Kearny St, San Francisco, CA, 94108'
p997
aa(lp998
S'Fountain Cafe'
p999
aS'50 Post St, San Francisco, CA, 94104'
p1000
aa(lp1001
S'Fox Plaza Deli Cafe'
p1002
aS'1390 Market St, San Francisco, CA, 94102'
p1003
aa(lp1004
S'France Delices'
p1005
aS'Location Varies, San Francisco, CA, 94123'
p1006
aa(lp1007
S'Frances'
p1008
aS'3870 17th St, San Francisco, CA, 94114'
p1009
aa(lp1010
S'Freddies Sandwiches #2'
p1011
aS'1488 Pine St, San Francisco, CA, 94109'
p1012
aa(lp1013
S'French Creme Brulee'
p1014
aS'720 Market St, San Francisco, CA, 94108'
p1015
aa(lp1016
S'Fresco Pizza & Shawarma'
p1017
aS'1338 Polk St, San Francisco, CA, 94109'
p1018
aa(lp1019
S'Fringale'
p1020
aS'570 4th St, San Francisco, CA, 94107'
p1021
aa(lp1022
S'Frisco Fried'
p1023
aS'5176 3rd St, San Francisco, CA, 94124'
p1024
aa(lp1025
S'Frjtz'
p1026
aS'579 Hayes St, San Francisco, CA, 94102'
p1027
aa(lp1028
S'Frjtz'
p1029
aS'590 Valencia St, San Francisco, CA, 94110'
p1030
aa(lp1031
S'Front Door Cafe'
p1032
aS'1 Front St, San Francisco, CA, 94111'
p1033
aa(lp1034
S'G Food Lounge'
p1035
aS'Location Varies, San Francisco, CA, 94107'
p1036
aa(lp1037
S'GS Riverside BBQ'
p1038
aS'3751 Geary Blvd, San Francisco, CA, 94118'
p1039
aa(lp1040
S'Galette 88'
p1041
aS'88 Hardie Pl, San Francisco, CA, 94104'
p1042
aa(lp1043
S'Gallery Cafe'
p1044
aS'1200 Mason St, San Francisco, CA, 94108'
p1045
aa(lp1046
S"Gambino's"
p1047
aS'One Market Plz, San Francisco, CA, 94105'
p1048
aa(lp1049
S'Gamine'
p1050
aS'2223 Union St, San Francisco, CA, 94123'
p1051
aa(lp1052
S"Ganim's Deli"
p1053
aS'1135 18th St, San Francisco, CA, 94107'
p1054
aa(lp1055
S'Garcon'
p1056
aS'1101 Valencia St, San Francisco, CA, 94110'
p1057
aa(lp1058
S"Garibaldi's"
p1059
aS'347 Presidio Ave, San Francisco, CA, 94115'
p1060
aa(lp1061
S'Gaspar Brasserie'
p1062
aS'185 Sutter St, San Francisco, CA, 94104'
p1063
aa(lp1064
S'Geneva Steak House'
p1065
aS'5130 Mission St, San Francisco, CA, 94112'
p1066
aa(lp1067
S'Genki Crepes'
p1068
aS'330 Clement St, San Francisco, CA, 94118'
p1069
aa(lp1070
S"George's Zoo"
p1071
aS'2560 Sloat Blvd, San Francisco, CA, 94116'
p1072
aa(lp1073
S'Geppetto'
p1074
aS'658 Vallejo St, San Francisco, CA, 94133'
p1075
aa(lp1076
S'Gestalt Haus'
p1077
aS'3159 16th St, San Francisco, CA, 94103'
p1078
aa(lp1079
S'Globe'
p1080
aS'290 Pacific Ave, San Francisco, CA, 94111'
p1081
aa(lp1082
S"Go Getter's Deli"
p1083
aS'100 Gough Street, San Francisco, CA, 94102'
p1084
aa(lp1085
S'Go Streatery'
p1086
aS'Location Varies, San Francisco, CA, 94102'
p1087
aa(lp1088
S'Gold Coast Grill & Catering'
p1089
aS'1650 Holloway Ave, San Francisco, CA, 94132'
p1090
aa(lp1091
S'Golden Gate Indian Cuisine & Pizza'
p1092
aS'1388 46th Ave, San Francisco, CA, 94122'
p1093
aa(lp1094
S'Golden Gate Meat Company'
p1095
aS'1 Ferry Building, San Francisco, CA, 94111'
p1096
aa(lp1097
S'Good Eats Cafe'
p1098
aS'200 Pine St, San Francisco, CA, 94104'
p1099
aa(lp1100
S"Gott's Roadside Tray Gourmet"
p1101
aS'1 Ferry Building, San Francisco, CA, 94111'
p1102
aa(lp1103
S'Grand Seven Food Liquer & Deli'
p1104
aS'1740 Cesar Chavez St, San Francisco, CA, 94124'
p1105
aa(lp1106
S'Green Heart Foods'
p1107
aS'3321 20th St, San Francisco, CA, 94110'
p1108
aa(lp1109
S'Griddle Fresh'
p1110
aS'4007 24th St, San Francisco, CA, 94114'
p1111
aa(lp1112
S'Grub'
p1113
aS'758 Valencia St, San Francisco, CA, 94110'
p1114
aa(lp1115
S'Grubstake'
p1116
aS'1525 Pine St, San Francisco, CA, 94109'
p1117
aa(lp1118
S"Grumpy's American Pub"
p1119
aS'125 Vallejo St, San Francisco, CA, 94111'
p1120
aa(lp1121
S"Guerra's Deli & Meats"
p1122
aS'490 Taraval St, San Francisco, CA, 94116'
p1123
aa(lp1124
S'H20 Cafe'
p1125
aS'1330 Polk St, San Francisco, CA, 94109'
p1126
aa(lp1127
S'Haagen Dazs'
p1128
aS'3251 20th Ave, San Francisco, CA, 94132'
p1129
aa(lp1130
S'Hamburger Haven'
p1131
aS'800 Clement St, San Francisco, CA, 94118'
p1132
aa(lp1133
S'Handy Delicatessen'
p1134
aS'1815 Irving St, San Francisco, CA, 94122'
p1135
aa(lp1136
S"Harris'"
p1137
aS'2100 Van Ness Ave, San Francisco, CA, 94109'
p1138
aa(lp1139
S'Harrow'
p1140
aS'357 Kearny St, San Francisco, CA, 94108'
p1141
aa(lp1142
S"Harry Denton's Starlight Room"
p1143
aS'450 Powell St, San Francisco, CA, 94102'
p1144
aa(lp1145
S"Harry's Bar"
p1146
aS'2020 Fillmore St, San Francisco, CA, 94115'
p1147
aa(lp1148
S'Harvest Urban Market'
p1149
aS'191 8th St, San Francisco, CA, 94103'
p1150
aa(lp1151
S"Harvey's"
p1152
aS'500 Castro St, San Francisco, CA, 94114'
p1153
aa(lp1154
S'Hawaii West Bbq'
p1155
aS'729 Vallejo St, San Francisco, CA, 94133'
p1156
aa(lp1157
S'Hawaiian Drive Inn'
p1158
aS'2600 San Bruno Ave, San Francisco, CA, 94134'
p1159
aa(lp1160
S'Hawaiian Drive Inn. #28'
p1161
aS'4827 Mission St, San Francisco, CA, 94112'
p1162
aa(lp1163
S"Hazel's Kitchen"
p1164
aS'1331 18th St, San Francisco, CA, 94107'
p1165
aa(lp1166
S'Heirloom Cafe'
p1167
aS'2500 Folsom St, San Francisco, CA, 94110'
p1168
aa(lp1169
S'Hella Vegan Eats'
p1170
aS'Location Varies, San Francisco, CA, 94110'
p1171
aa(lp1172
S'Herbivore'
p1173
aS'531 Divisadero St, San Francisco, CA, 94117'
p1174
aa(lp1175
S'Heyday'
p1176
aS'180 Spear St, San Francisco, CA, 94105'
p1177
aa(lp1178
S'Hi Dive'
p1179
aS'Pier 28 1/2, San Francisco, CA, 94105'
p1180
aa(lp1181
S'Hi Tops'
p1182
aS'2247 Market St, San Francisco, CA, 94114'
p1183
aa(lp1184
S'Hillside Supper Club'
p1185
aS'300 Precita Ave, San Francisco, CA, 94110'
p1186
aa(lp1187
S'Hillstone'
p1188
aS'1800 Montgomery St, San Francisco, CA, 94111'
p1189
aa(lp1190
S"Hoffman's"
p1191
aS'1000 Guerrero St, San Francisco, CA, 94110'
p1192
aa(lp1193
S'Hog & Rocks'
p1194
aS'3431 19th St, San Francisco, CA, 94110'
p1195
aa(lp1196
S'Hole in the Wall Pizza'
p1197
aS'3244 Scott St, San Francisco, CA, 94123'
p1198
aa(lp1199
S'Holey Bagel'
p1200
aS'3872 24th St, San Francisco, CA, 94114'
p1201
aa(lp1202
S'Hollow Cow Market'
p1203
aS'3165 Steiner St, San Francisco, CA, 94123'
p1204
aa(lp1205
S'Holy Grill'
p1206
aS'659 Townsend St, San Francisco, CA, 94103'
p1207
aa(lp1208
S'Home Plate'
p1209
aS'2274 Lombard St, San Francisco, CA, 94123'
p1210
aa(lp1211
S'Home Skillet'
p1212
aS'1001 Market St, San Francisco, CA, 94103'
p1213
aa(lp1214
S'Honey Honey Cafe & Crepery'
p1215
aS'599 Post St, San Francisco, CA, 94102'
p1216
aa(lp1217
S'Hopwater Distribution'
p1218
aS'850 Bush St, San Francisco, CA, 94108'
p1219
aa(lp1220
S'Horatius'
p1221
aS'350 Kansas St, San Francisco, CA, 94103'
p1222
aa(lp1223
S'Horizon Restaurant & Lounge'
p1224
aS'498 Broadway St, San Francisco, CA, 94133'
p1225
aa(lp1226
S"Horner's Corner"
p1227
aS'1199 Church St, San Francisco, CA, 94114'
p1228
aa(lp1229
S'House of Bagels'
p1230
aS'5030 Geary Blvd, San Francisco, CA, 94118'
p1231
aa(lp1232
S"Howard's Cafe"
p1233
aS'1309 9th Ave, San Francisco, CA, 94122'
p1234
aa(lp1235
S'Huxley'
p1236
aS'846 Geary St, San Francisco, CA, 94109'
p1237
aa(lp1238
S'IHOP'
p1239
aS'200 Beach St, San Francisco, CA, 94133'
p1240
aa(lp1241
S'In-N-Out Burger'
p1242
aS'333 Jefferson St, San Francisco, CA, 94133'
p1243
aa(lp1244
S'In-N-Out Burger'
p1245
aS'333 Jefferson St, San Francisco, CA, 94133'
p1246
aa(lp1247
S'Indigo'
p1248
aS'687 McAllister St, San Francisco, CA, 94102'
p1249
aa(lp1250
S'Ironside'
p1251
aS'680A 2nd St, San Francisco, CA, 94107'
p1252
aa(lp1253
S'Irving Street Cafe'
p1254
aS'716 Irving St, San Francisco, CA, 94122'
p1255
aa(lp1256
S'Isa'
p1257
aS'3324 Steiner St, San Francisco, CA, 94123'
p1258
aa(lp1259
S"Israel's Strictly Kosher"
p1260
aS'675 Victoria St, San Francisco, CA, 94127'
p1261
aa(lp1262
S"It's A Grind Coffee House"
p1263
aS'1800 Polk St, San Francisco, CA, 94109'
p1264
aa(lp1265
S"It's Top's Coffee Shop"
p1266
aS'1801 Market St, San Francisco, CA, 94103'
p1267
aa(lp1268
S'J & V Restaurant and Catering'
p1269
aS'2095 Jerrold Ave, San Francisco, CA, 94124'
p1270
aa(lp1271
S'J Tu Cafe'
p1272
aS'582 Sutter St, San Francisco, CA, 94102'
p1273
aa(lp1274
S"JB's Place"
p1275
aS'1435 17th St, San Francisco, CA, 94107'
p1276
aa(lp1277
S"Jablow's Meats"
p1278
aS'86 2nd St, San Francisco, CA, 94105'
p1279
aa(lp1280
S'Jack in the Box'
p1281
aS'366 Bay Shore Blvd , San Francisco, CA, 94124'
p1282
aa(lp1283
S'Jack in the Box'
p1284
aS'400 Geary St, San Francisco, CA, 94102'
p1285
aa(lp1286
S'Jack in the Box'
p1287
aS'42 1st St, San Francisco, CA, 94105'
p1288
aa(lp1289
S'Jack in the Box'
p1290
aS'4649 Geary Blvd, San Francisco, CA, 94118'
p1291
aa(lp1292
S'Jack in the Box'
p1293
aS'808 Mission St, San Francisco, CA, 94103'
p1294
aa(lp1295
S'Jacks Cannery Bar'
p1296
aS'2801 Leavenworth St, San Francisco, CA, 94133'
p1297
aa(lp1298
S"Jake's Place"
p1299
aS'293 Bayshore Blvd, San Francisco, CA, 94124'
p1300
aa(lp1301
S'Jamba Juice'
p1302
aS'1200 Van Ness Ave, San Francisco, CA, 94109'
p1303
aa(lp1304
S'Jamba Juice'
p1305
aS'2130 Fulton St, San Francisco, CA, 94117'
p1306
aa(lp1307
S'Jamba Juice'
p1308
aS'250 Montgomery St, San Francisco, CA, 94104'
p1309
aa(lp1310
S'Jamba Juice'
p1311
aS'3480 California St, San Francisco, CA, 94118'
p1312
aa(lp1313
S'Jamba Juice'
p1314
aS'70 Mission St, San Francisco, CA, 94105'
p1315
aa(lp1316
S'Jamber'
p1317
aS'858 Folsom St, San Francisco, CA, 94107'
p1318
aa(lp1319
S'Jardiniere'
p1320
aS'300 Grove St, San Francisco, CA, 94102'
p1321
aa(lp1322
S"Jasmin's Cafe & Deli"
p1323
aS'809 Bush St, San Francisco, CA, 94108'
p1324
aa(lp1325
S"Jasper's Corner Tap & Kitchen"
p1326
aS'401 Taylor St, San Francisco, CA, 94102'
p1327
aa(lp1328
S'Java House'
p1329
aS'Pier 40, San Francisco, CA, 94107'
p1330
aa(lp1331
S"Jillian's"
p1332
aS'101 4th St, San Francisco, CA, 94103'
p1333
aa(lp1334
S"Joanie's Happy Days Diner"
p1335
aS'1329 Columbus Ave, San Francisco, CA, 94133'
p1336
aa(lp1337
S"John's Burgers"
p1338
aS'1114 Market St, San Francisco, CA, 94102'
p1339
aa(lp1340
S"John's Grill"
p1341
aS'63 Ellis St, San Francisco, CA, 94102'
p1342
aa(lp1343
S'Johnny Rockets'
p1344
aS'81 Jefferson St, San Francisco, CA, 94133'
p1345
aa(lp1346
S"Johnson's Bar-b-que"
p1347
aS'2648 San Bruno Ave, San Francisco, CA, 94134'
p1348
aa(lp1349
S'Jones'
p1350
aS'620 Jones St, San Francisco, CA, 94102'
p1351
aa(lp1352
S"Judy's Cafe"
p1353
aS'2268 Chestnut St, San Francisco, CA, 94123'
p1354
aa(lp1355
S"Juicey Lucy's"
p1356
aS'703 Columbus Ave, San Francisco, CA, 94133'
p1357
aa(lp1358
S"Juicy Lucy's"
p1359
aS'703 Columbus Ave, San Francisco, CA, 94133'
p1360
aa(lp1361
S'Jump Start Coffee & Grocery'
p1362
aS'1192 Guerrero St, San Francisco, CA, 94110'
p1363
aa(lp1364
S'KFC - Kentucky Fried Chicken'
p1365
aS'1150 Taraval St, San Francisco, CA, 94116'
p1366
aa(lp1367
S'KFC - Kentucky Fried Chicken'
p1368
aS'1610 Jerrold Ave, San Francisco, CA, 94124'
p1369
aa(lp1370
S'KFC - Kentucky Fried Chicken'
p1371
aS'1881 Geary Blvd, San Francisco, CA, 94115'
p1372
aa(lp1373
S'KFC - Kentucky Fried Chicken'
p1374
aS'1900 Irving St, San Francisco, CA, 94122'
p1375
aa(lp1376
S'KFC - Kentucky Fried Chicken'
p1377
aS'200 Duboce Ave, San Francisco, CA, 94103'
p1378
aa(lp1379
S'KFC - Kentucky Fried Chicken'
p1380
aS'2040 Ocean Ave, San Francisco, CA, 94127'
p1381
aa(lp1382
S'KFC - Kentucky Fried Chicken'
p1383
aS'2101 Lombard St, San Francisco, CA, 94123'
p1384
aa(lp1385
S'KFC - Kentucky Fried Chicken'
p1386
aS'4150 Geary Blvd, San Francisco, CA, 94118'
p1387
aa(lp1388
S'KFC - Kentucky Fried Chicken'
p1389
aS'4285 Mission St, San Francisco, CA, 94112'
p1390
aa(lp1391
S'KFC - Kentucky Fried Chicken'
p1392
aS'691 Eddy St, San Francisco, CA, 94109'
p1393
aa(lp1394
S"Kate O'Briens"
p1395
aS'579 Howard St, San Francisco, CA, 94105'
p1396
aa(lp1397
S"Kate's Kitchen"
p1398
aS'471 Haight St, San Francisco, CA, 94117'
p1399
aa(lp1400
S'Keiko a Nob Hill'
p1401
aS'1250 Jones St, San Francisco, CA, 94109'
p1402
aa(lp1403
S"Kenny's Chinese & American"
p1404
aS'518 S Van Ness Ave, San Francisco, CA, 94110'
p1405
aa(lp1406
S'Kezar Bar & Restaurant'
p1407
aS'900 Cole St, San Francisco, CA, 94117'
p1408
aa(lp1409
S'Kinfolk'
p1410
aS'903 Cortland Ave, San Francisco, CA, 94110'
p1411
aa(lp1412
S'King Salame Sandwich Shop'
p1413
aS'1926 Lombard Street, San Francisco, CA, 94123'
p1414
aa(lp1415
S'King of Currywurst'
p1416
aS'425 Divisadero St, San Francisco, CA, 94117'
p1417
aa(lp1418
S'Kitchen Story'
p1419
aS'3499 16th St, San Francisco, CA, 94114'
p1420
aa(lp1421
S'Knuckles Sports Bar & Grill'
p1422
aS'555 N Point St, San Francisco, CA, 94133'
p1423
aa(lp1424
S'L & L Hawaiian BBQ'
p1425
aS'312 Kearny St, San Francisco, CA, 94108'
p1426
aa(lp1427
S"L'Olivier"
p1428
aS'465 Davis Ct, San Francisco, CA, 94111'
p1429
aa(lp1430
S"L'ardoise"
p1431
aS'151 Noe St, San Francisco, CA, 94114'
p1432
aa(lp1433
S'La Bergerie'
p1434
aS'4221 Geary Blvd, San Francisco, CA, 94118'
p1435
aa(lp1436
S'La Boulange'
p1437
aS'1266 9th Ave, San Francisco, CA, 94122'
p1438
aa(lp1439
S'La Boulange'
p1440
aS'1909 Union St, San Francisco, CA, 94123'
p1441
aa(lp1442
S'La Boulange'
p1443
aS'2043 Fillmore St, San Francisco, CA, 94115'
p1444
aa(lp1445
S'La Boulange'
p1446
aS'222 Sutter St, San Francisco, CA, 94115'
p1447
aa(lp1448
S'La Boulange'
p1449
aS'3898 24th St, San Francisco, CA, 94114'
p1450
aa(lp1451
S'La Boulange'
p1452
aS'465 California St, San Francisco, CA, 94104'
p1453
aa(lp1454
S'La Boulange de Columbus'
p1455
aS'543 Columbus St, San Francisco, CA, 94133'
p1456
aa(lp1457
S'La Boulange de Hayes'
p1458
aS'500 Hayes St, San Francisco, CA, 94102'
p1459
aa(lp1460
S'La Boulange de Market'
p1461
aS'685 Market St, San Francisco, CA, 94103'
p1462
aa(lp1463
S'La Boulange du Dome'
p1464
aS'845 Market St, San Francisco, CA, 94103'
p1465
aa(lp1466
S'La Ciudad De Mexico'
p1467
aS'200 6th Ave, San Francisco, CA, 94118'
p1468
aa(lp1469
S'La Folie'
p1470
aS'2316 Polk St, San Francisco, CA, 94109'
p1471
aa(lp1472
S'La Galleria Cafe'
p1473
aS'930 Bush St, San Francisco, CA, 94109'
p1474
aa(lp1475
S'LaLe'
p1476
aS'731 Irving St, San Francisco, CA, 94122'
p1477
aa(lp1478
S'Lafayette Coffee Shop'
p1479
aS'611 Larkin St, San Francisco, CA, 94109'
p1480
aa(lp1481
S'Lagos Pizza'
p1482
aS'448 Broadway, San Francisco, CA, 94133'
p1483
aa(lp1484
S'Lakeside Cafe'
p1485
aS'2529 Ocean Ave, San Francisco, CA, 94132'
p1486
aa(lp1487
S'Larkin Express'
p1488
aS'452 Larkin St, San Francisco, CA, 94102'
p1489
aa(lp1490
S"Larry Flynt's Hustler Club"
p1491
aS'1031 Kearny St, San Francisco, CA, 94133'
p1492
aa(lp1493
S'Last Drop Tavern'
p1494
aS'550 Powell St, San Francisco, CA, 94108'
p1495
aa(lp1496
S'Laszlo Bar'
p1497
aS'2526 Mission St, San Francisco, CA, 94110'
p1498
aa(lp1499
S'Lazy Bear'
p1500
aS'3416 19th St, San Francisco, CA, 94110'
p1501
aa(lp1502
S'Le Central Bistro'
p1503
aS'453 Bush St, San Francisco, CA, 94108'
p1504
aa(lp1505
S'Le Charm'
p1506
aS'315 5th St, San Francisco, CA, 94107'
p1507
aa(lp1508
S'Le Marais Bakery'
p1509
aS'2066 Chestnut St, San Francisco, CA, 94123'
p1510
aa(lp1511
S"Le Petitt's Kitchen"
p1512
aS'265 Golden Gate Ave, San Francisco, CA, 94102'
p1513
aa(lp1514
S'Le Regency'
p1515
aS'18 California St, San Francisco, CA, 94111'
p1516
aa(lp1517
S'Le Zinc'
p1518
aS'4063 24th St, San Francisco, CA, 94114'
p1519
aa(lp1520
S'LeBeau Nob Hill Market'
p1521
aS'1263 Leavenworth St, San Francisco, CA, 94109'
p1522
aa(lp1523
S'Leaping Lemur Cafe'
p1524
aS'1 Zoo Rd, San Francisco, CA, 94132'
p1525
aa(lp1526
S"Lee's"
p1527
aS'550 California St, San Francisco, CA, 94104'
p1528
aa(lp1529
S"Lee's Deli"
p1530
aS'117 New Montgomery St, San Francisco, CA, 94105'
p1531
aa(lp1532
S"Lee's Deli"
p1533
aS'222 Front St, San Francisco, CA, 94111'
p1534
aa(lp1535
S"Lee's Deli"
p1536
aS'280 Battery St, San Francisco, CA, 94111'
p1537
aa(lp1538
S"Lee's Deli"
p1539
aS'303 2nd St, San Francisco, CA, 94107'
p1540
aa(lp1541
S"Lee's Deli"
p1542
aS'615 Market St, San Francisco, CA, 94104'
p1543
aa(lp1544
S"Lefty O'Doul's"
p1545
aS'333 Geary St, San Francisco, CA, 94102'
p1546
aa(lp1547
S'Legion Of Honor Cafe'
p1548
aS'100 34th Ave, San Francisco, CA, 94121'
p1549
aa(lp1550
S'Leland Tea Company'
p1551
aS'1416 Bush St, San Francisco, CA, 94109'
p1552
aa(lp1553
S"Leopold's"
p1554
aS'2400 Polk St, San Francisco, CA, 94109'
p1555
aa(lp1556
S'Les Clos'
p1557
aS'234 Townsend St, San Francisco, CA, 94107'
p1558
aa(lp1559
S'Les Joulins Jazz Bistro'
p1560
aS'44 Ellis St, San Francisco, CA, 94102'
p1561
aa(lp1562
S'Level III'
p1563
aS'500 Post St, San Francisco, CA, 94102'
p1564
aa(lp1565
S'Levi Plaza Cafe'
p1566
aS'1155 Battery St, San Francisco, CA, 94111'
p1567
aa(lp1568
S'Library Bar'
p1569
aS'562 Sutter St, San Francisco, CA, 94102'
p1570
aa(lp1571
S"Lilah Belle's"
p1572
aS'1207 Divisadero, San Francisco, CA, 94115'
p1573
aa(lp1574
S"Lilly's Bar-B-Que"
p1575
aS'705 Divisadero St, San Francisco, CA, 94117'
p1576
aa(lp1577
S'Little Cafe '
p1578
aS'955 Market Street, San Francisco, CA, 94103'
p1579
aa(lp1580
S'Little Griddle'
p1581
aS'1400 Market St, San Francisco, CA, 94102'
p1582
aa(lp1583
S'Little Heaven Deli'
p1584
aS'2348 Mission St, San Francisco, CA, 94110'
p1585
aa(lp1586
S"Little Joe's Pizzeria"
p1587
aS'5006 Mission St, San Francisco, CA, 94112'
p1588
aa(lp1589
S'Little Piglet Cafe'
p1590
aS'451 9th St, San Francisco, CA, 94103'
p1591
aa(lp1592
S'Little Red Riding Truck'
p1593
aS'Location Varies, San Francisco, CA, 94103'
p1594
aa(lp1595
S'Little Wok'
p1596
aS'2675 Ocean Ave, San Francisco, CA, 94132'
p1597
aa(lp1598
S'Local'
p1599
aS'330 1st St, San Francisco, CA, 94105'
p1600
aa(lp1601
S"Lori's Diner"
p1602
aS'336 Mason St, San Francisco, CA, 94102'
p1603
aa(lp1604
S"Lori's Diner"
p1605
aS'500 Sutter St, San Francisco, CA, 94102'
p1606
aa(lp1607
S"Lou's Cafe"
p1608
aS'5017 Geary Blvd, San Francisco, CA, 94118'
p1609
aa(lp1610
S"Louie's Bar & Grill"
p1611
aS'55 Stevenson St, San Francisco, CA, 94105'
p1612
aa(lp1613
S"Louis' Restaurant"
p1614
aS'902 Point Lobos Ave, San Francisco, CA, 94121'
p1615
aa(lp1616
S'Louisiana Famous Fried Chicken'
p1617
aS'1325 Fillmore St, San Francisco, CA, 94115'
p1618
aa(lp1619
S'Louisiana Famous Fried Chicken'
p1620
aS'6 6th St, San Francisco, CA, 94103'
p1621
aa(lp1622
S'LuLu'
p1623
aS'816 Folsom St, San Francisco, CA, 94107'
p1624
aa(lp1625
S'Lucca Delicatessen'
p1626
aS'2120 Chestnut St, San Francisco, CA, 94123'
p1627
aa(lp1628
S'Lucca Food Store'
p1629
aS'1899 Irving St, San Francisco, CA, 94122'
p1630
aa(lp1631
S'Luce'
p1632
aS'888 Howard St, San Francisco, CA, 94103'
p1633
aa(lp1634
S'Lucky Strike Lanes'
p1635
aS'200 King St, San Francisco, CA, 94107'
p1636
aa(lp1637
S'Luna Park'
p1638
aS'694 Valencia St, San Francisco, CA, 94110'
p1639
aa(lp1640
S'Luques'
p1641
aS'433 Powell St, San Francisco, CA, 94102'
p1642
aa(lp1643
S'MKT'
p1644
aS'757 Market St, San Francisco, CA, 94103'
p1645
aa(lp1646
S'MaSo'
p1647
aS'50 3rd St, San Francisco, CA, 94103'
p1648
aa(lp1649
S"Mabel's Just For You Cafe"
p1650
aS'732 22nd St, San Francisco, CA, 94107'
p1651
aa(lp1652
S'Machine Coffee & Deli'
p1653
aS'1024 Market St, San Francisco, CA, 94103'
p1654
aa(lp1655
S'Magnolia'
p1656
aS'1398 Haight St, San Francisco, CA, 94117'
p1657
aa(lp1658
S'Mahalo!'
p1659
aS'1376 9th Ave, San Francisco, CA, 94122'
p1660
aa(lp1661
S'Mama Cass'
p1662
aS'Location Varies, San Francisco, CA, 94158'
p1663
aa(lp1664
S"Mama's"
p1665
aS'1701 Stockton St, San Francisco, CA, 94133'
p1666
aa(lp1667
S'Manhattan Hub'
p1668
aS'343 Sansome St, San Francisco, CA, 94111'
p1669
aa(lp1670
S'Marble Slab Creamery'
p1671
aS'219 King St, San Francisco, CA, 94107'
p1672
aa(lp1673
S'Marengo'
p1674
aS'1980 Union St, San Francisco, CA, 94123'
p1675
aa(lp1676
S'Marina Deli'
p1677
aS'2299 Chestnut St, San Francisco, CA, 94123'
p1678
aa(lp1679
S'Marina Submarine'
p1680
aS'2299 Union St, San Francisco, CA, 94123'
p1681
aa(lp1682
S'Marius Deli & Cafe'
p1683
aS'150 Toland St, San Francisco, CA, 94124'
p1684
aa(lp1685
S'Market Mayflower & Deli'
p1686
aS'985 Bush St, San Francisco, CA, 94109'
p1687
aa(lp1688
S'Market Street Grill'
p1689
aS'1231 Market St, San Francisco, CA, 94103'
p1690
aa(lp1691
S'Marla Bakery'
p1692
aS'3619 Balboa St, San Francisco, CA, 94121'
p1693
aa(lp1694
S'Marlowe'
p1695
aS'500 Brannan St, San Francisco, CA, 94107'
p1696
aa(lp1697
S'Mars Bar & Restaurant'
p1698
aS'798 Brannan St, San Francisco, CA, 94103'
p1699
aa(lp1700
S'Martin Macks'
p1701
aS'1568 Haight St, San Francisco, CA, 94117'
p1702
aa(lp1703
S"Martita's Kitchen"
p1704
aS'2560 Marin St, San Francisco, CA, 94124'
p1705
aa(lp1706
S'Mason Pacific'
p1707
aS'1358 Mason St, San Francisco, CA, 94133'
p1708
aa(lp1709
S'Maven'
p1710
aS'598 Haight St, San Francisco, CA, 94117'
p1711
aa(lp1712
S"Max's Market"
p1713
aS'555 California St, San Francisco, CA, 94104'
p1714
aa(lp1715
S"Max's Opera Cafe"
p1716
aS'601 Van Ness Ave, San Francisco, CA, 94102'
p1717
aa(lp1718
S'Mayes Oyster House'
p1719
aS'1233 Polk St, San Francisco, CA, 94109'
p1720
aa(lp1721
S"McCormick & Kuleto's"
p1722
aS'900 N Point St, San Francisco, CA, 94109'
p1723
aa(lp1724
S"McDonald's"
p1725
aS'1100 Fillmore St, San Francisco, CA, 94115'
p1726
aa(lp1727
S"McDonald's"
p1728
aS'1201 Ocean Ave, San Francisco, CA, 94112'
p1729
aa(lp1730
S"McDonald's"
p1731
aS'145 Jefferson St, San Francisco, CA, 94133'
p1732
aa(lp1733
S"McDonald's"
p1734
aS'1455 Market St, San Francisco, CA, 94103'
p1735
aa(lp1736
S"McDonald's"
p1737
aS'2011 Mission St, San Francisco, CA, 94110'
p1738
aa(lp1739
S"McDonald's"
p1740
aS'235 Front St, San Francisco, CA, 94111'
p1741
aa(lp1742
S"McDonald's"
p1743
aS'255 Winston Dr, San Francisco, CA, 94132'
p1744
aa(lp1745
S"McDonald's"
p1746
aS'2801 Mission St, San Francisco, CA, 94110'
p1747
aa(lp1748
S"McDonald's"
p1749
aS'302 Potrero Ave, San Francisco, CA, 94103'
p1750
aa(lp1751
S"McDonald's"
p1752
aS'345 Bay Shore Blvd, San Francisco, CA, 94124'
p1753
aa(lp1754
S"McDonald's"
p1755
aS'441 Pine St, San Francisco, CA, 94104'
p1756
aa(lp1757
S"McDonald's"
p1758
aS'5411 3rd St, San Francisco, CA, 94124'
p1759
aa(lp1760
S"McDonald's"
p1761
aS'5454 Mission St, San Francisco, CA, 94112'
p1762
aa(lp1763
S"McDonald's"
p1764
aS'575 Market St, San Francisco, CA, 94105'
p1765
aa(lp1766
S"McDonald's"
p1767
aS'600 Van Ness Ave, San Francisco, CA, 94102'
p1768
aa(lp1769
S"McDonald's"
p1770
aS'609 Market St, San Francisco, CA, 94105'
p1771
aa(lp1772
S"McDonald's"
p1773
aS'730 Stanyan St, San Francisco, CA, 94117'
p1774
aa(lp1775
S"McDonald's"
p1776
aS'820 Bryant St, San Francisco, CA, 94103'
p1777
aa(lp1778
S'Me So Hungry'
p1779
aS'Location Varies, San Francisco, CA, 94103'
p1780
aa(lp1781
S'Metro Burger Caffe'
p1782
aS'247 Fillmore St, San Francisco, CA, 94117'
p1783
aa(lp1784
S'Michael Mina'
p1785
aS'252 California St, San Francisco, CA, 94111'
p1786
aa(lp1787
S'Michaelis Food Store'
p1788
aS'901 N Point St, San Francisco, CA, 94109'
p1789
aa(lp1790
S"Miller's East Coast Deli"
p1791
aS'1725 Polk St, San Francisco, CA, 94109'
p1792
aa(lp1793
S'Mission Beach Cafe'
p1794
aS'198 Guerrero St, San Francisco, CA, 94103'
p1795
aa(lp1796
S'Mission Grille'
p1797
aS'780 Mission St, San Francisco, CA, 94103'
p1798
aa(lp1799
S'Mission Rock Resort'
p1800
aS'817 Terry Francois Blvd, San Francisco, CA, 94158'
p1801
aa(lp1802
S"Mission's Kitchen"
p1803
aS'2738 Mission St, San Francisco, CA, 94110'
p1804
aa(lp1805
S"Mo's"
p1806
aS'1322 Grant Ave, San Francisco, CA, 94133'
p1807
aa(lp1808
S"MoMo's"
p1809
aS'760 2nd St, San Francisco, CA, 94107'
p1810
aa(lp1811
S"Monk's Kettle"
p1812
aS'3141 16th St, San Francisco, CA, 94110'
p1813
aa(lp1814
S'Monroe'
p1815
aS'473 Broadway, San Francisco, CA, 94133'
p1816
aa(lp1817
S'Monsieur Benjamin'
p1818
aS'451 Gough St, San Francisco, CA, 94102'
p1819
aa(lp1820
S'Monterey Deli'
p1821
aS'499 Monterey Blvd, San Francisco, CA, 94127'
p1822
aa(lp1823
S'Moolicious'
p1824
aS'1 Sansome St, San Francisco, CA, 94105'
p1825
aa(lp1826
S'Moolicious'
p1827
aS'135 4th St, San Francisco, CA, 94103'
p1828
aa(lp1829
S'Morning Due Cafe'
p1830
aS'3698 17th St, San Francisco, CA, 94114'
p1831
aa(lp1832
S"Morty's Delicatessen"
p1833
aS'280 Golden Gate Ave, San Francisco, CA, 94102'
p1834
aa(lp1835
S'Moscone Pizzadeli'
p1836
aS'257 3rd St, San Francisco, CA, 94103'
p1837
aa(lp1838
S"Moscone's At Saint Francis Place"
p1839
aS'689 Folsom St, San Francisco, CA, 94107'
p1840
aa(lp1841
S'Moscow & Tbilisi Bakery Store'
p1842
aS'5540 Geary Blvd, San Francisco, CA, 94121'
p1843
aa(lp1844
S'Mozzarella Di Bufala'
p1845
aS'1529 Fillmore St, San Francisco, CA, 94115'
p1846
aa(lp1847
S'MrCrave'
p1848
aS'655 Ellis Street , San Francisco, CA, 94109'
p1849
aa(lp1850
S'Muka'
p1851
aS'370 Grove St, San Francisco, CA, 94102'
p1852
aa(lp1853
S"Mum's"
p1854
aS'1800 Sutter St, San Francisco, CA, 94115'
p1855
aa(lp1856
S'Municher'
p1857
aS'Location Varies, San Francisco, CA, 94124'
p1858
aa(lp1859
S"Murphy's Deli"
p1860
aS'560 Mission St, San Francisco, CA, 94105'
p1861
aa(lp1862
S'My Corner Cafe'
p1863
aS'1500 S Van Ness Ave, San Francisco, CA, 94110'
p1864
aa(lp1865
S'Mymy Coffee Shop'
p1866
aS'1500 California St, San Francisco, CA, 94109'
p1867
aa(lp1868
S'NY Buffalo Wings'
p1869
aS'659 Valencia St, San Francisco, CA, 94110'
p1870
aa(lp1871
S'New Aux Delices'
p1872
aS'1002 Potrero Ave, San Francisco, CA, 94110'
p1873
aa(lp1874
S'New Village Cafe'
p1875
aS'1426 Polk St, San Francisco, CA, 94109'
p1876
aa(lp1877
S"Nickie's"
p1878
aS'466 Haight St, San Francisco, CA, 94117'
p1879
aa(lp1880
S'Nico'
p1881
aS'3228 Sacramento St, San Francisco, CA, 94115'
p1882
aa(lp1883
S'Nob Hill Club'
p1884
aS'1 Nob Hill, San Francisco, CA, 94108'
p1885
aa(lp1886
S'Nob Hill Grille'
p1887
aS'969 Hyde St, San Francisco, CA, 94109'
p1888
aa(lp1889
S'Noeteca'
p1890
aS'1551 Dolores St, San Francisco, CA, 94110'
p1891
aa(lp1892
S'Noir'
p1893
aS'581 Hayes St, San Francisco, CA, 94102'
p1894
aa(lp1895
S'North Beach'
p1896
aS'4787 Mission St, San Francisco, CA, 94112'
p1897
aa(lp1898
S'North Beach Lobster Shack'
p1899
aS'532 Green St, San Francisco, CA, 94133'
p1900
aa(lp1901
S'Nova'
p1902
aS'555 2nd St, San Francisco, CA, 94107'
p1903
aa(lp1904
S'O Izakaya Lounge'
p1905
aS'1625 Post St, San Francisco, CA, 94115'
p1906
aa(lp1907
S'OZ Lounge'
p1908
aS'260 Kearny St, San Francisco, CA, 94108'
p1909
aa(lp1910
S'Old Ship Saloon'
p1911
aS'298 Pacific Ave, San Francisco, CA, 94111'
p1912
aa(lp1913
S'Old Skool Cafe'
p1914
aS'1429 Mendell Street, San Francisco, CA, 94124'
p1915
aa(lp1916
S'Olive'
p1917
aS'743 Larkin St, San Francisco, CA, 94109'
p1918
aa(lp1919
S"Olivia's Fish - Chicken & Gumbo"
p1920
aS'4712 3rd St, San Francisco, CA, 94124'
p1921
aa(lp1922
S'Olympic Flame Cafe'
p1923
aS'555 Geary St, San Francisco, CA, 94102'
p1924
aa(lp1925
S'One Market'
p1926
aS'1 Market St, San Francisco, CA, 94105'
p1927
aa(lp1928
S'One Up'
p1929
aS'345 Stockton St, San Francisco, CA, 94108'
p1930
aa(lp1931
S'Oola'
p1932
aS'860 Folsom St, San Francisco, CA, 94107'
p1933
aa(lp1934
S'Opaque'
p1935
aS'689 McAllister St, San Francisco, CA, 94102'
p1936
aa(lp1937
S'Original Buffalo Wings'
p1938
aS'2499 Lombard St, San Francisco, CA, 94123'
p1939
aa(lp1940
S'Original Ghirardelli Ice Cream & Chocolate Shop'
p1941
aS'900 N Point St, San Francisco, CA, 94109'
p1942
aa(lp1943
S"Orphan Andy's"
p1944
aS'3991 17th St, San Francisco, CA, 94114'
p1945
aa(lp1946
S'Our Court Cafe'
p1947
aS'952 Clement St, San Francisco, CA, 94118'
p1948
aa(lp1949
S"Pal's Takeaway"
p1950
aS'3066 24th St, San Francisco, CA, 94110'
p1951
aa(lp1952
S'Palm Tree Cafe'
p1953
aS'1785 Divisadero St, San Francisco, CA, 94115'
p1954
aa(lp1955
S"Palmer's Tavern"
p1956
aS'2298 Fillmore St, San Francisco, CA, 94115'
p1957
aa(lp1958
S'Panera Bread'
p1959
aS'2675 Geary Blvd, San Francisco, CA, 94118'
p1960
aa(lp1961
S'Panera Bread'
p1962
aS'301 King Street, San Francisco, CA, 94158'
p1963
aa(lp1964
S"Papa John's Pizza"
p1965
aS'69 Cambon Dr, San Francisco, CA, 94132'
p1966
aa(lp1967
S'Paragon'
p1968
aS'701 2nd St, San Francisco, CA, 94107'
p1969
aa(lp1970
S'Parallel 37'
p1971
aS'600 Stockton St, San Francisco, CA, 94108'
p1972
aa(lp1973
S'Paris Pizza and Grill'
p1974
aS'448 Broadway, San Francisco, CA, 94133'
p1975
aa(lp1976
S'Park Chalet'
p1977
aS'1000 Great Hwy, San Francisco, CA, 94121'
p1978
aa(lp1979
S'Park Chow'
p1980
aS'1240 9th Ave, San Francisco, CA, 94122'
p1981
aa(lp1982
S'Park Grill'
p1983
aS'333 Battery St, San Francisco, CA, 94111'
p1984
aa(lp1985
S'Park Tavern'
p1986
aS'1652 Stockton St, San Francisco, CA, 94133'
p1987
aa(lp1988
S'Parkside Tavern'
p1989
aS'1940 Taraval St, San Francisco, CA, 94116'
p1990
aa(lp1991
S"Pat's Cafe"
p1992
aS'2230 Taylor St, San Francisco, CA, 94133'
p1993
aa(lp1994
S"Pat's Cafe"
p1995
aS'2330 Taylor St, San Francisco, CA, 94133'
p1996
aa(lp1997
S"Paul's Deli"
p1998
aS'10 Lombard St, San Francisco, CA, 94111'
p1999
aa(lp2000
S'Pause'
p2001
aS'1666 Market St, San Francisco, CA, 94102'
p2002
aa(lp2003
S"Pearl's Deluxe Burgers"
p2004
aS'708 Post St, San Francisco, CA, 94109'
p2005
aa(lp2006
S'Penthouse Club & Restaurant'
p2007
aS'412 Broadway St, San Francisco, CA, 94133'
p2008
aa(lp2009
S'Per Diem'
p2010
aS'43 Sutter St, San Francisco, CA, 94104'
p2011
aa(lp2012
S'Perfect Hamburger'
p2013
aS'601 Geary St, San Francisco, CA, 94102'
p2014
aa(lp2015
S"Perry's"
p2016
aS'155 Steuart St, San Francisco, CA, 94105'
p2017
aa(lp2018
S"Perry's"
p2019
aS'1944 Union St, San Francisco, CA, 94123'
p2020
aa(lp2021
S"Perry's"
p2022
aS'SFO International Airport - Terminal 1, San Francisco, CA, 94128'
p2023
aa(lp2024
S'Pesce'
p2025
aS'2227 Polk St, San Francisco, CA, 94109'
p2026
aa(lp2027
S"Pete's Deli and Cafe"
p2028
aS'1661 Divisadero St, San Francisco, CA, 94115'
p2029
aa(lp2030
S"Peter D's"
p2031
aS'2201 Van Ness Ave, San Francisco, CA, 94109'
p2032
aa(lp2033
S'Petit Cafe'
p2034
aS'501 Geary St, San Francisco, CA, 94102'
p2035
aa(lp2036
S'Phoenix Bar & Irish Gathering Place'
p2037
aS'811 Valencia St, San Francisco, CA, 94110'
p2038
aa(lp2039
S'Pier Market Seafood Restaurant'
p2040
aS'Pier 39, San Francisco, CA, 94133'
p2041
aa(lp2042
S'Pinecrest Diner'
p2043
aS'401 Geary St, San Francisco, CA, 94102'
p2044
aa(lp2045
S'Pisces California Cuisine'
p2046
aS'3414 Judah St, San Francisco, CA, 94122'
p2047
aa(lp2048
S'Pizza Hut'
p2049
aS'1523 Sloat Blvd, San Francisco, CA, 94132'
p2050
aa(lp2051
S'Pizza Hut'
p2052
aS'3349 Mission St, San Francisco, CA, 94110'
p2053
aa(lp2054
S'Pizza Hut'
p2055
aS'728 Geary St, San Francisco, CA, 94109'
p2056
aa(lp2057
S'Pizza Joint'
p2058
aS'2414 San Bruno Ave, San Francisco, CA, 94134'
p2059
aa(lp2060
S'Pizza Prada'
p2061
aS'239 Powell St, San Francisco, CA, 94102'
p2062
aa(lp2063
S"Pizza Zone 'N Grill"
p2064
aS'178 Valencia St, San Francisco, CA, 94103'
p2065
aa(lp2066
S'Players'
p2067
aS'Pier 39, San Francisco, CA, 94133'
p2068
aa(lp2069
S'Plouf'
p2070
aS'40 Belden Pl, San Francisco, CA, 94104'
p2071
aa(lp2072
S'Plow'
p2073
aS'1299 18th St, San Francisco, CA, 94107'
p2074
aa(lp2075
S"Pluto's"
p2076
aS'3258 Scott St, San Francisco, CA, 94123'
p2077
aa(lp2078
S"Pluto's"
p2079
aS'627 Irving St, San Francisco, CA, 94122'
p2080
aa(lp2081
S"Polker's Gourmet Burgers"
p2082
aS'2226 Polk St, San Francisco, CA, 94109'
p2083
aa(lp2084
S'Polo Grounds'
p2085
aS'747 3rd St, San Francisco, CA, 94107'
p2086
aa(lp2087
S'Pomelo'
p2088
aS'1793 Church St, San Francisco, CA, 94131'
p2089
aa(lp2090
S'Pomelo'
p2091
aS'92 Judah St, San Francisco, CA, 94122'
p2092
aa(lp2093
S'Popeyes Chicken & Biscuits'
p2094
aS'1426t Fillmore St, San Francisco, CA, 94115'
p2095
aa(lp2096
S'Popeyes Chicken & Biscuits'
p2097
aS'2598 Mission St, San Francisco, CA, 94110'
p2098
aa(lp2099
S'Popeyes Chicken & Biscuits'
p2100
aS'599 Divisadero St, San Francisco, CA, 94117'
p2101
aa(lp2102
S'Popeyes Chicken & Biscuits'
p2103
aS'890 Geneva Ave, San Francisco, CA, 94112'
p2104
aa(lp2105
S'Pork Store Cafe'
p2106
aS'1451 Haight St, San Francisco, CA, 94117'
p2107
aa(lp2108
S'Pork Store Cafe'
p2109
aS'3122 16th St, San Francisco, CA, 94103'
p2110
aa(lp2111
S'Portico'
p2112
aS'98 1st St, San Francisco, CA, 94105'
p2113
aa(lp2114
S'Posh Bagel'
p2115
aS'4 Perry St, San Francisco, CA, 94107'
p2116
aa(lp2117
S'Preet Palace'
p2118
aS'1109 Fillmore, San Francisco, CA, 94115'
p2119
aa(lp2120
S'Presidio Cafe'
p2121
aS'300 Finley Rd, San Francisco, CA, 94129'
p2122
aa(lp2123
S'Presidio Social Club'
p2124
aS'563 Ruger St, San Francisco, CA, 94129'
p2125
aa(lp2126
S'Prime Dip'
p2127
aS'545A Sansome St, San Francisco, CA, 94115'
p2128
aa(lp2129
S'Proper Food'
p2130
aS'100 1st St, San Francisco, CA, 94105'
p2131
aa(lp2132
S'Punjab'
p2133
aS'2838 24th St, San Francisco, CA, 94110'
p2134
aa(lp2135
S'Queen Malika'
p2136
aS'4416 18 St, San Francisco, CA, 94114'
p2137
aa(lp2138
S'Quickly'
p2139
aS'5301 Mission St, San Francisco, CA, 94112'
p2140
aa(lp2141
S'Quince'
p2142
aS'470 Pacific Ave, San Francisco, CA, 94133'
p2143
aa(lp2144
S'Quiznos Sub'
p2145
aS'110 Bush St, San Francisco, CA, 94104'
p2146
aa(lp2147
S'Quiznos Sub'
p2148
aS'1501 Sloat Blvd, San Francisco, CA, 94132'
p2149
aa(lp2150
S'Quiznos Sub'
p2151
aS'215 Fremont St, San Francisco, CA, 94105'
p2152
aa(lp2153
S'Quiznos Sub'
p2154
aS'28 3rd St, San Francisco, CA, 94103'
p2155
aa(lp2156
S'Quiznos Sub'
p2157
aS'303 2nd St, San Francisco, CA, 94107'
p2158
aa(lp2159
S'Quiznos Sub'
p2160
aS'901 Polk St, San Francisco, CA, 94109'
p2161
aa(lp2162
S'RN74'
p2163
aS'301 Mission St, San Francisco, CA, 94105'
p2164
aa(lp2165
S'Radish'
p2166
aS'3465 19th St, San Francisco, CA, 94110'
p2167
aa(lp2168
S'Radius'
p2169
aS'1123 Folsom St, San Francisco, CA, 94103'
p2170
aa(lp2171
S'Rainforest Cafe'
p2172
aS'145 Jefferson St, San Francisco, CA, 94133'
p2173
aa(lp2174
S'Red Dog'
p2175
aS'303 2nd St, San Francisco, CA, 94107'
p2176
aa(lp2177
S'Red Door Cafe'
p2178
aS'1608 Bush St, San Francisco, CA, 94108'
p2179
aa(lp2180
S"Red's Java House"
p2181
aS'Pier 30, San Francisco, CA, 94105'
p2182
aa(lp2183
S'Redford'
p2184
aS'673 Geary St, San Francisco, CA, 94102'
p2185
aa(lp2186
S'Restaurant Gary Danko'
p2187
aS'800 N Point St, San Francisco, CA, 94109'
p2188
aa(lp2189
S'Restaurant Seven Fifty (750)'
p2190
aS'750 Kearny St, San Francisco, CA, 94108'
p2191
aa(lp2192
S"Rhea's Cafe"
p2193
aS'2200 Bryant St, San Francisco, CA, 94110'
p2194
aa(lp2195
S"Rhea's Deli"
p2196
aS'800 Valencia St, San Francisco, CA, 94110'
p2197
aa(lp2198
S'Rich Table'
p2199
aS'199 Gough St, San Francisco, CA, 94102'
p2200
aa(lp2201
S'Rickybobby'
p2202
aS'400 Haight St, San Francisco, CA, 94102'
p2203
aa(lp2204
S'Rigolo'
p2205
aS'3465 California St, San Francisco, CA, 94118'
p2206
aa(lp2207
S"Roady's Longburger"
p2208
aS'101 Spear St, San Francisco, CA, 94105'
p2209
aa(lp2210
S'Roam Artisan Burgers'
p2211
aS'1785 Union St, San Francisco, CA, 94123'
p2212
aa(lp2213
S'Robber Baron'
p2214
aS'2032 Polk St, San Francisco, CA, 94109'
p2215
aa(lp2216
S'Rogue Ales Public House'
p2217
aS'673 Union St, San Francisco, CA, 94133'
p2218
aa(lp2219
S'Rosamunde Sausage Grill'
p2220
aS'2832 Mission St, San Francisco, CA, 94110'
p2221
aa(lp2222
S'Rosamunde Sausage Grill'
p2223
aS'545 Haight St, San Francisco, CA, 94117'
p2224
aa(lp2225
S'Rosenberg Deli and Market'
p2226
aS'276 Noe St, San Francisco, CA, 94114'
p2227
aa(lp2228
S'Rosenburg Deli'
p2229
aS'276 Noe St, San Francisco, CA, 94114'
p2230
aa(lp2231
S"Rossi's Delicatessen"
p2232
aS'426 Castro St, San Francisco, CA, 94114'
p2233
aa(lp2234
S'Rouge et Blanc'
p2235
aS'334 Grant Ave, San Francisco, CA, 94108'
p2236
aa(lp2237
S'Round Table Pizza'
p2238
aS'2660 San Bruno Ave, San Francisco, CA, 94134'
p2239
aa(lp2240
S'Roxanne Cafe'
p2241
aS'570 Powell St, San Francisco, CA, 94108'
p2242
aa(lp2243
S"Rubio's"
p2244
aS'865 Market St, San Francisco, CA, 94103'
p2245
aa(lp2246
S'Ruby Skye'
p2247
aS'420 Mason St, San Francisco, CA, 94102'
p2248
aa(lp2249
S'Rue Lepic'
p2250
aS'900 Pine St, San Francisco, CA, 94108'
p2251
aa(lp2252
S'Rye Project'
p2253
aS'180 7th St, San Francisco, CA, 94103'
p2254
aa(lp2255
S'S & R Lounge'
p2256
aS'55 5th St, San Francisco, CA, 94103'
p2257
aa(lp2258
S"S.F. Preet's Cafe"
p2259
aS'995 Market St, San Francisco, CA, 94103'
p2260
aa(lp2261
S'SPQR'
p2262
aS'1911 Fillmore St, San Francisco, CA, 94115'
p2263
aa(lp2264
S'Saigon Deli Express'
p2265
aS'50 Drumm St, San Francisco, CA, 94105'
p2266
aa(lp2267
S'Salt House'
p2268
aS'545 Mission St, San Francisco, CA, 94105'
p2269
aa(lp2270
S'Salumeria'
p2271
aS'1550 Bryant St, San Francisco, CA, 94103'
p2272
aa(lp2273
S'Salumeria'
p2274
aS'3000 20th St, San Francisco, CA, 94110'
p2275
aa(lp2276
S"Sammy's Gourmet Deli & Cafe"
p2277
aS'1356 Van Ness Ave, San Francisco, CA, 94109'
p2278
aa(lp2279
S"Sammy's on 2nd"
p2280
aS'84 2nd St, San Francisco, CA, 94105'
p2281
aa(lp2282
S'Sauce'
p2283
aS'131 Gough St, San Francisco, CA, 94102'
p2284
aa(lp2285
S'Sauce'
p2286
aS'56 Belden Pl, San Francisco, CA, 94104'
p2287
aa(lp2288
S'Savor'
p2289
aS'3913 24th St, San Francisco, CA, 94114'
p2290
aa(lp2291
S'Sbarro'
p2292
aS'3521 20th St, San Francisco, CA, 94110'
p2293
aa(lp2294
S'Schilling Cafe'
p2295
aS'667-669 Commercial St, San Francisco, CA, 94111'
p2296
aa(lp2297
S"Schmidt's"
p2298
aS'2400 Folsom St, San Francisco, CA, 94110'
p2299
aa(lp2300
S"Schroeder's"
p2301
aS'240 Front St, San Francisco, CA, 94111'
p2302
aa(lp2303
S'Sea Breeze Cafe'
p2304
aS'3940 Judah St, San Francisco, CA, 94122'
p2305
aa(lp2306
S'Seaglass'
p2307
aS'Pier 15, San Francisco, CA, 94111'
p2308
aa(lp2309
S'Seal Rock Inn Restaurant'
p2310
aS'545 Point Lobos Ave, San Francisco, CA, 94121'
p2311
aa(lp2312
S'Sears Fine Food'
p2313
aS'439 Powell St, San Francisco, CA, 94102'
p2314
aa(lp2315
S'Sheba Piano Lounge'
p2316
aS'1419 Fillmore St, San Francisco, CA, 94115'
p2317
aa(lp2318
S"Shorty Goldstein's"
p2319
aS'126 Sutter St, San Francisco, CA, 94104'
p2320
aa(lp2321
S'Show Dogs'
p2322
aS'1020 Market Street, San Francisco, CA, 94102'
p2323
aa(lp2324
S'Silver Clouds'
p2325
aS'1994 Lombard St, San Francisco, CA, 94123'
p2326
aa(lp2327
S'Slow Club'
p2328
aS'2501 Mariposa St, San Francisco, CA, 94110'
p2329
aa(lp2330
S'SmashBurger'
p2331
aS'2300 16th St, San Francisco, CA, 94103'
p2332
aa(lp2333
S"Smokin' Warehouse"
p2334
aS'Location Varies, San Francisco, CA, 94107'
p2335
aa(lp2336
S'SoMa Inn Cafe'
p2337
aS'1082 Folsom St, San Francisco, CA, 94103'
p2338
aa(lp2339
S'Soccer Cafe'
p2340
aS'2797 16th St, San Francisco, CA, 94103'
p2341
aa(lp2342
S'Social Kitchen & Brewery'
p2343
aS'1326 9th Ave, San Francisco, CA, 94122'
p2344
aa(lp2345
S'Soma Eats'
p2346
aS'186 2nd St, San Francisco, CA, 94105'
p2347
aa(lp2348
S'Sons & Daughters'
p2349
aS'708 Bush St, San Francisco, CA, 94108'
p2350
aa(lp2351
S'Sorrento Delicatessen'
p2352
aS'4763 Mission St , San Francisco, CA, 94112'
p2353
aa(lp2354
S'South End Grill & Bar'
p2355
aS'1499 Valencia St, San Francisco, CA, 94110'
p2356
aa(lp2357
S'South Park Cafe'
p2358
aS'108 S Park St, San Francisco, CA, 94107'
p2359
aa(lp2360
S'Southern Pacific Brewing Company'
p2361
aS'620 Treat Ave, San Francisco, CA, 94110'
p2362
aa(lp2363
S'Sparrow'
p2364
aS'1640 Haight St, San Francisco, CA, 94117'
p2365
aa(lp2366
S'Spinnerie'
p2367
aS'1401 Polk St, San Francisco, CA, 94109'
p2368
aa(lp2369
S'Split Pea Seduction'
p2370
aS'138 6th St, San Francisco, CA, 94103'
p2371
aa(lp2372
S'Spruce'
p2373
aS'3640 Sacramento St, San Francisco, CA, 94118'
p2374
aa(lp2375
S'Squat & Gobble'
p2376
aS'2263 Chestnut St, San Francisco, CA, 94123'
p2377
aa(lp2378
S'Squat & Gobble'
p2379
aS'3600 16th St, San Francisco, CA, 94114'
p2380
aa(lp2381
S'St. Vincent'
p2382
aS'1270 Valencia St, San Francisco, CA, 94110'
p2383
aa(lp2384
S'Stacks'
p2385
aS'501 Hayes St, San Francisco, CA, 94102'
p2386
aa(lp2387
S'Starbelly'
p2388
aS'3583 16th St, San Francisco, CA, 94114'
p2389
aa(lp2390
S'Starbucks Coffee'
p2391
aS'100 W Portal Ave, San Francisco, CA, 94127'
p2392
aa(lp2393
S'Starbucks Coffee'
p2394
aS'120 4th St, San Francisco, CA, 94103'
p2395
aa(lp2396
S'Starbucks Coffee'
p2397
aS'1231 Market St, San Francisco, CA, 94103'
p2398
aa(lp2399
S'Starbucks Coffee'
p2400
aS'1255 Battery St, San Francisco, CA, 94111'
p2401
aa(lp2402
S'Starbucks Coffee'
p2403
aS'1298 Howard St, San Francisco, CA, 94103'
p2404
aa(lp2405
S'Starbucks Coffee'
p2406
aS'1390 Market St, San Francisco, CA, 94102'
p2407
aa(lp2408
S'Starbucks Coffee'
p2409
aS'1401 Van Ness Ave, San Francisco, CA, 94109'
p2410
aa(lp2411
S'Starbucks Coffee'
p2412
aS'1501 Fillmore St, San Francisco, CA, 94115'
p2413
aa(lp2414
S'Starbucks Coffee'
p2415
aS'1750 Divisadero St, San Francisco, CA, 94115'
p2416
aa(lp2417
S'Starbucks Coffee'
p2418
aS'1799 Fulton St, San Francisco, CA, 94117'
p2419
aa(lp2420
S'Starbucks Coffee'
p2421
aS'1800 Irving St, San Francisco, CA, 94122'
p2422
aa(lp2423
S'Starbucks Coffee'
p2424
aS'1899 Union St, San Francisco, CA, 94123'
p2425
aa(lp2426
S'Starbucks Coffee'
p2427
aS'201 3rd St, San Francisco, CA, 94103'
p2428
aa(lp2429
S'Starbucks Coffee'
p2430
aS'201 Powell St, San Francisco, CA, 94102'
p2431
aa(lp2432
S'Starbucks Coffee'
p2433
aS'210 Spear St, San Francisco, CA, 94105'
p2434
aa(lp2435
S'Starbucks Coffee'
p2436
aS'2132 Chestnut St, San Francisco, CA, 94123'
p2437
aa(lp2438
S'Starbucks Coffee'
p2439
aS'2165 Polk St, San Francisco, CA, 94109'
p2440
aa(lp2441
S'Starbucks Coffee'
p2442
aS'222 Mason St, San Francisco, CA, 94102'
p2443
aa(lp2444
S'Starbucks Coffee'
p2445
aS'2222 Fillmore St, San Francisco, CA, 94115'
p2446
aa(lp2447
S'Starbucks Coffee'
p2448
aS'2300 16th St, San Francisco, CA, 94103'
p2449
aa(lp2450
S'Starbucks Coffee'
p2451
aS'2435 California St, San Francisco, CA, 94115'
p2452
aa(lp2453
S'Starbucks Coffee'
p2454
aS'27 Drumm St, San Francisco, CA, 94111'
p2455
aa(lp2456
S'Starbucks Coffee'
p2457
aS'2727 Mariposa St, San Francisco, CA, 94110'
p2458
aa(lp2459
S'Starbucks Coffee'
p2460
aS'280 King St, San Francisco, CA, 94107'
p2461
aa(lp2462
S'Starbucks Coffee'
p2463
aS'295 California St, San Francisco, CA, 94111'
p2464
aa(lp2465
S'Starbucks Coffee'
p2466
aS'3251 20th Ave, San Francisco, CA, 94132'
p2467
aa(lp2468
S'Starbucks Coffee'
p2469
aS'350 Parnassus Ave, San Francisco, CA, 94117'
p2470
aa(lp2471
S'Starbucks Coffee'
p2472
aS'359 Grant Ave, San Francisco, CA, 94108'
p2473
aa(lp2474
S'Starbucks Coffee'
p2475
aS'3595 California St, San Francisco, CA, 94118'
p2476
aa(lp2477
S'Starbucks Coffee'
p2478
aS'36 2nd St, San Francisco, CA, 94105'
p2479
aa(lp2480
S'Starbucks Coffee'
p2481
aS'3735 Buchanan St, San Francisco, CA, 94123'
p2482
aa(lp2483
S'Starbucks Coffee'
p2484
aS'390 Stockton St, San Francisco, CA, 94108'
p2485
aa(lp2486
S'Starbucks Coffee'
p2487
aS'398 Market St, San Francisco, CA, 94111'
p2488
aa(lp2489
S'Starbucks Coffee'
p2490
aS'3995 24th St, San Francisco, CA, 94114'
p2491
aa(lp2492
S'Starbucks Coffee'
p2493
aS'4094 18th St, San Francisco, CA, 94114'
p2494
aa(lp2495
S'Starbucks Coffee'
p2496
aS'425 Battery St, San Francisco, CA, 94111'
p2497
aa(lp2498
S'Starbucks Coffee'
p2499
aS'44 Montgomery St, San Francisco, CA, 94104'
p2500
aa(lp2501
S'Starbucks Coffee'
p2502
aS'442 Geary St, San Francisco, CA, 94102'
p2503
aa(lp2504
S'Starbucks Coffee'
p2505
aS'490 Brannan St, San Francisco, CA, 94107'
p2506
aa(lp2507
S'Starbucks Coffee'
p2508
aS'499 Bay St, San Francisco, CA, 94133'
p2509
aa(lp2510
S'Starbucks Coffee'
p2511
aS'52 California St, San Francisco, CA, 94111'
p2512
aa(lp2513
S'Starbucks Coffee'
p2514
aS'5290 Diamond Heights Blvd, San Francisco, CA, 94131'
p2515
aa(lp2516
S'Starbucks Coffee'
p2517
aS'555 California St, San Francisco, CA, 94104'
p2518
aa(lp2519
S'Starbucks Coffee'
p2520
aS'675 Portola Dr, San Francisco, CA, 94127'
p2521
aa(lp2522
S'Starbucks Coffee'
p2523
aS'680 Beach St, San Francisco, CA, 94109'
p2524
aa(lp2525
S'Starbucks Coffee'
p2526
aS'689 Townsend St, San Francisco, CA, 94103'
p2527
aa(lp2528
S'Starbucks Coffee'
p2529
aS'701 Battery St, San Francisco, CA, 94111'
p2530
aa(lp2531
S'Starbucks Coffee'
p2532
aS'74 New Montgomery St, San Francisco, CA, 94105'
p2533
aa(lp2534
S'Starbucks Coffee'
p2535
aS'744 Irving St, San Francisco, CA, 94122'
p2536
aa(lp2537
S'Starbucks Coffee'
p2538
aS'780 Market St, San Francisco, CA, 94102'
p2539
aa(lp2540
S'Starbucks Coffee'
p2541
aS'865 Market St, San Francisco, CA, 94103'
p2542
aa(lp2543
S'Starbucks Coffee'
p2544
aS'99 Jackson St, San Francisco, CA, 94111'
p2545
aa(lp2546
S'Starvin Marvin'
p2547
aS'932 Geneva Ave, San Francisco, CA, 94112'
p2548
aa(lp2549
S'State Bird Provisions'
p2550
aS'1529 Fillmore St, San Francisco, CA, 94115'
p2551
aa(lp2552
S'Steep Brew'
p2553
aS'450 Rhode Island St, San Francisco, CA, 94103'
p2554
aa(lp2555
S'Steins'
p2556
aS'731 Clement St, San Francisco, CA, 94118'
p2557
aa(lp2558
S'Stem'
p2559
aS'499 Illinois St, San Francisco, CA, 94158'
p2560
aa(lp2561
S'Stock in Trade'
p2562
aS'2036 Lombard St, San Francisco, CA, 94123'
p2563
aa(lp2564
S'Stones Throw'
p2565
aS'1896 Hyde St, San Francisco, CA, 94109'
p2566
aa(lp2567
S'Straw'
p2568
aS'203 Octavia Blvd, San Francisco, CA, 94102'
p2569
aa(lp2570
S'Street'
p2571
aS'2141 Polk St, San Francisco, CA, 94109'
p2572
aa(lp2573
S'Stuffed'
p2574
aS'2788 Mission St, San Francisco, CA, 94110'
p2575
aa(lp2576
S'Subway'
p2577
aS'408 Montgomery St., San Francisco, CA, 94104'
p2578
aa(lp2579
S'Subway'
p2580
aS'423 Bush St, San Francisco, CA, 94108'
p2581
aa(lp2582
S'Subway'
p2583
aS'483 Sacramento St, San Francisco, CA, 94104'
p2584
aa(lp2585
S'Sugar Bowl Bakery'
p2586
aS'2238 Geary Blvd, San Francisco, CA, 94115'
p2587
aa(lp2588
S'Sugar Bowl Bakery'
p2589
aS'2623 San Bruno Ave, San Francisco, CA, 94134'
p2590
aa(lp2591
S'Sunrise Cafe'
p2592
aS'1114 Bryant St, San Francisco, CA, 94103'
p2593
aa(lp2594
S'Super Duper'
p2595
aS'2304 Market St, San Francisco, CA, 94114'
p2596
aa(lp2597
S'Suppenkuche'
p2598
aS'525 Laguna St, San Francisco, CA, 94102'
p2599
aa(lp2600
S'Supperclub'
p2601
aS'657 Harrison St, San Francisco, CA, 94107'
p2602
aa(lp2603
S'Sutter Pub'
p2604
aS'700 Sutter St, San Francisco, CA, 94109'
p2605
aa(lp2606
S'Sweet Woodruff'
p2607
aS'798 Sutter St, San Francisco, CA, 94109'
p2608
aa(lp2609
S'Sweetmue'
p2610
aS'3414 22nd St, San Francisco, CA, 94110'
p2611
aa(lp2612
S"Swensen's"
p2613
aS'Union Hyde, San Francisco, CA, 94102'
p2614
aa(lp2615
S"T'Licious Delicatessens"
p2616
aS'431 23rd Ave, San Francisco, CA, 94121'
p2617
aa(lp2618
S"T.G.I. Friday's"
p2619
aS'25 Van Ness Ave, San Francisco, CA, 94102'
p2620
aa(lp2621
S'TAP415'
p2622
aS'845 Market St, San Francisco, CA, 94103'
p2623
aa(lp2624
S'TBD'
p2625
aS'1077 Mission St, San Francisco, CA, 94103'
p2626
aa(lp2627
S'TJ Cafe'
p2628
aS'724 La Playa St, San Francisco, CA, 94121'
p2629
aa(lp2630
S'Tadich Grill'
p2631
aS'240 California St, San Francisco, CA, 94111'
p2632
aa(lp2633
S'Tapioca Express'
p2634
aS'1522 Fillmore St, San Francisco, CA, 94115'
p2635
aa(lp2636
S'Taps'
p2637
aS'1516 Broadway, San Francisco, CA, 94111'
p2638
aa(lp2639
S"Tarantino's Restaurant"
p2640
aS'206 Jefferson St, San Francisco, CA, 94133'
p2641
aa(lp2642
S'Tartine Bakery'
p2643
aS'600 Guerrero St, San Francisco, CA, 94110'
p2644
aa(lp2645
S'Tartine Cafe Francais'
p2646
aS'244 Gough St, San Francisco, CA, 94102'
p2647
aa(lp2648
S'Taverna Aventine'
p2649
aS'582 Washington St, San Francisco, CA, 94111'
p2650
aa(lp2651
S'Teaway'
p2652
aS'2250 Irving St, San Francisco, CA, 94122'
p2653
aa(lp2654
S"Ted's Market"
p2655
aS'1530 Howard St, San Francisco, CA, 94103'
p2656
aa(lp2657
S"Ted's Sports Bar & Grill"
p2658
aS'312 Harriet St, San Francisco, CA, 94103'
p2659
aa(lp2660
S'Tee Off Bar and Grill'
p2661
aS'3129 Clement St, San Francisco, CA, 94121'
p2662
aa(lp2663
S'Tempest'
p2664
aS'431 Natoma St, San Francisco, CA, 94103'
p2665
aa(lp2666
S'Tender'
p2667
aS'854 Geary St, San Francisco, CA, 94109'
p2668
aa(lp2669
S'Tender Greens'
p2670
aS'30 Fremont St, San Francisco, CA, 94105'
p2671
aa(lp2672
S'Tennessee Grill'
p2673
aS'1128 Taraval St, San Francisco, CA, 94116'
p2674
aa(lp2675
S'Terrace Cafe'
p2676
aS'1 Zoo Rd, San Francisco, CA, 94132'
p2677
aa(lp2678
S'The Alembic'
p2679
aS'1725 Haight St, San Francisco, CA, 94117'
p2680
aa(lp2681
S'The American Grilled Cheese Kitchen'
p2682
aS'1 South Park, San Francisco, CA, 94107'
p2683
aa(lp2684
S'The Aveline'
p2685
aS'490 Geary St, San Francisco, CA, 94102'
p2686
aa(lp2687
S'The Bell Tower'
p2688
aS'1900 Polk St, San Francisco, CA, 94109'
p2689
aa(lp2690
S'The Bitter End'
p2691
aS'441 Clement St, San Francisco, CA, 94118'
p2692
aa(lp2693
S'The Blue Plate'
p2694
aS'3218 Mission St, San Francisco, CA, 94110'
p2695
aa(lp2696
S"The Boy's Deli"
p2697
aS'2222 Polk St, San Francisco, CA, 94109'
p2698
aa(lp2699
S'The Brazen Head'
p2700
aS'3166 Buchanan St, San Francisco, CA, 94123'
p2701
aa(lp2702
S'The Brick Yard Restaurant & Bar'
p2703
aS'1787 Union St, San Francisco, CA, 94123'
p2704
aa(lp2705
S'The Bubble Lounge'
p2706
aS'714 Montgomery St, San Francisco, CA, 94111'
p2707
aa(lp2708
S'The Burritt Room + Burritt Tavern'
p2709
aS'417 Stockton St, San Francisco, CA, 94108'
p2710
aa(lp2711
S'The Butler & The Chef Bistro'
p2712
aS'155 South Park St, San Francisco, CA, 94107'
p2713
aa(lp2714
S'The Chameleon'
p2715
aS'1299 Pacific Ave, San Francisco, CA, 94109'
p2716
aa(lp2717
S'The Cheesecake Factory'
p2718
aS'251 Geary St, San Francisco, CA, 94102'
p2719
aa(lp2720
S'The Cliff House Bistro'
p2721
aS'1090 Point Lobos Ave, San Francisco, CA, 94121'
p2722
aa(lp2723
S'The Commissary'
p2724
aS'101 Montgomery St, San Francisco, CA, 94129'
p2725
aa(lp2726
S'The Corner Store'
p2727
aS'5 Masonic Ave, San Francisco, CA, 94118'
p2728
aa(lp2729
S'The Cravery'
p2730
aS'829 Mission St, San Francisco, CA, 94103'
p2731
aa(lp2732
S'The Crepe Cafe'
p2733
aS'Pier 39, San Francisco, CA, 94133'
p2734
aa(lp2735
S'The Crepe House'
p2736
aS'1132 Valencia St, San Francisco, CA, 94110'
p2737
aa(lp2738
S'The Crepe House'
p2739
aS'1755 Polk St, San Francisco, CA, 94109'
p2740
aa(lp2741
S'The European'
p2742
aS'490 Geary St, San Francisco, CA, 94102'
p2743
aa(lp2744
S'The Front Room'
p2745
aS'1500 California St, San Francisco, CA, 94109'
p2746
aa(lp2747
S'The Garden Court'
p2748
aS'2 New Montgomery St, San Francisco, CA, 94105'
p2749
aa(lp2750
S'The Great Steak and Potato Company'
p2751
aS'3251 20th Ave, San Francisco, CA, 94132'
p2752
aa(lp2753
S'The Grill'
p2754
aS'799 Bryant St, San Francisco, CA, 94107'
p2755
aa(lp2756
S'The Grind Cafe'
p2757
aS'783 Haight St, San Francisco, CA, 94117'
p2758
aa(lp2759
S'The Grove Cafe Yerba Buena'
p2760
aS'690 Mission St, San Francisco, CA, 94105'
p2761
aa(lp2762
S'The Grove Fillmore'
p2763
aS'2016 Fillmore St, San Francisco, CA, 94115'
p2764
aa(lp2765
S'The Holding Company'
p2766
aS'2 Embarcadero Ctr, San Francisco, CA, 94111'
p2767
aa(lp2768
S'The Italian Homemade Company'
p2769
aS'716 Columbus Ave, San Francisco, CA, 94133'
p2770
aa(lp2771
S'The Jewel Restaurant'
p2772
aS'5251 3rd St, San Francisco, CA, 94124'
p2773
aa(lp2774
S'The Liberties'
p2775
aS'998 Guerrero St, San Francisco, CA, 94110'
p2776
aa(lp2777
S'The Living Room'
p2778
aS'181 3rd St, San Francisco, CA, 94105'
p2779
aa(lp2780
S'The Lost Ladles Cafe'
p2781
aS'655 Montgomery St, San Francisco, CA, 94111'
p2782
aa(lp2783
S'The Matterhorn Swiss Restaurant'
p2784
aS'2323 Van Ness Ave, San Francisco, CA, 94109'
p2785
aa(lp2786
S'The Melt'
p2787
aS'115 New Montgomery St, San Francisco, CA, 94105'
p2788
aa(lp2789
S'The Mortimer'
p2790
aS'550 Geary St, San Francisco, CA, 94102'
p2791
aa(lp2792
S'The Oak Room'
p2793
aS'335 Powell St, San Francisco, CA, 94102'
p2794
aa(lp2795
S'The Pied Piper'
p2796
aS'2 New Montgomery St, San Francisco, CA, 94105'
p2797
aa(lp2798
S'The Plant'
p2799
aS'Pier 3, Embarcadero, San Francisco, CA, 94111'
p2800
aa(lp2801
S'The Progress'
p2802
aS'1525 Fillmore St, San Francisco, CA, 94115'
p2803
aa(lp2804
S'The Pub'
p2805
aS'851 Beach St, San Francisco, CA, 94133'
p2806
aa(lp2807
S'The Ramp'
p2808
aS'855 Terry Francois St, San Francisco, CA, 94107'
p2809
aa(lp2810
S'The Rite Spot Cafe'
p2811
aS'2099 Folsom St, San Francisco, CA, 94110'
p2812
aa(lp2813
S'The Rotunda'
p2814
aS'150 Stockton St, San Francisco, CA, 94108'
p2815
aa(lp2816
S'The Royal Exchange'
p2817
aS'301 Sacramento St, San Francisco, CA, 94111'
p2818
aa(lp2819
S'The Royale'
p2820
aS'800 Post St, San Francisco, CA, 94109'
p2821
aa(lp2822
S'The Sandwich Company'
p2823
aS'220 Bush St, San Francisco, CA, 94104'
p2824
aa(lp2825
S'The Seismic Joint'
p2826
aS'Pier 15, San Francisco, CA, 94111'
p2827
aa(lp2828
S'The Sentinel'
p2829
aS'37 New Montgomery St, San Francisco, CA, 94105'
p2830
aa(lp2831
S'The Showroom'
p2832
aS'1000 Van Ness Ave, San Francisco, CA, 94109'
p2833
aa(lp2834
S'The Social Study'
p2835
aS'1795 Geary St, San Francisco, CA, 94109'
p2836
aa(lp2837
S'The Square'
p2838
aS'1707 Powell St, San Francisco, CA, 94133'
p2839
aa(lp2840
S'The Taco Guys'
p2841
aS'Location Varies, San Francisco, CA, 94111'
p2842
aa(lp2843
S'The Terrace'
p2844
aS'55 Music Concourse Dr, San Francisco, CA, 94118'
p2845
aa(lp2846
S'The Tipsy Pig'
p2847
aS'2231 Chestnut St, San Francisco, CA, 94123'
p2848
aa(lp2849
S'The Tradesman'
p2850
aS'753 Alabama St, San Francisco, CA, 94110'
p2851
aa(lp2852
S'The Vestry'
p2853
aS'777 Valencia St, San Francisco, CA, 94110'
p2854
aa(lp2855
S'The View Cafe'
p2856
aS'3333 California St, San Francisco, CA, 94118'
p2857
aa(lp2858
S'The View Lounge'
p2859
aS'780 Mission St, San Francisco, CA, 94103'
p2860
aa(lp2861
S'The Westwood'
p2862
aS'1152 Valencia St, San Francisco, CA, 94110'
p2863
aa(lp2864
S'The Willows'
p2865
aS'1582 Folsom St, San Francisco, CA, 94103'
p2866
aa(lp2867
S'Thermidor'
p2868
aS'8 Mint Plaza, San Francisco, CA, 94103'
p2869
aa(lp2870
S'Ti-couz - CLOSED'
p2871
aS'3108 16th St, San Francisco, CA, 94103'
p2872
aa(lp2873
S'Tipsy Cow'
p2874
aS'15005 Ventura Blvd, Sherman Oaks, CA, 94103'
p2875
aa(lp2876
S'Toast'
p2877
aS'1601 Polk St, San Francisco, CA, 94109'
p2878
aa(lp2879
S'Toast Eatery'
p2880
aS'1748 Church St, San Francisco, CA, 94131'
p2881
aa(lp2882
S'Toasties'
p2883
aS'836 Irving St, San Francisco, CA, 94122'
p2884
aa(lp2885
S"Tony Baloney's"
p2886
aS'1098 Howard St, San Francisco, CA, 94103'
p2887
aa(lp2888
S'Tony Romas'
p2889
aS'2 Perry St, San Francisco, CA, 94107'
p2890
aa(lp2891
S"Tony's Cable Car Restaurant"
p2892
aS'2500 Geary Blvd, San Francisco, CA, 94115'
p2893
aa(lp2894
S'Tower Burger'
p2895
aS'729 Portola Dr, San Francisco, CA, 94127'
p2896
aa(lp2897
S'Town Hall'
p2898
aS'342 Howard St, San Francisco, CA, 94105'
p2899
aa(lp2900
S"Town's End Restaurant & Bakery"
p2901
aS'2 Townsend St, San Francisco, CA, 94107'
p2902
aa(lp2903
S'Trace'
p2904
aS'181 3rd St, San Francisco, CA, 94103'
p2905
aa(lp2906
S'Trick Dog'
p2907
aS'3010 20th St, San Francisco, CA, 94110'
p2908
aa(lp2909
S'Trolley Caffe'
p2910
aS'1400 Taraval St, San Francisco, CA, 94116'
p2911
aa(lp2912
S'Trou Normand'
p2913
aS'140 New Montgomery St, San Francisco, CA, 94105'
p2914
aa(lp2915
S"Tully's Coffee"
p2916
aS'3966 24th St, San Francisco, CA, 94114'
p2917
aa(lp2918
S'Two Jacks Seafood'
p2919
aS'401 Haight St, San Francisco, CA, 94117'
p2920
aa(lp2921
S'Two Sisters Bar And Books'
p2922
aS'579 Hayes St, San Francisco, CA, 94102'
p2923
aa(lp2924
S"Tyger's Coffee Shop"
p2925
aS'2798 Diamond St, San Francisco, CA, 94131'
p2926
aa(lp2927
S'Ultra Crepes'
p2928
aS'Location Varies, San Francisco, CA, 94102'
p2929
aa(lp2930
S'Umami Burger'
p2931
aS'2184 Union St, San Francisco, CA, 94123'
p2932
aa(lp2933
S"Uncle Boy's"
p2934
aS'245 Balboa St, San Francisco, CA, 94118'
p2935
aa(lp2936
S'Union Larder'
p2937
aS'1945 Hyde St, San Francisco, CA, 94109'
p2938
aa(lp2939
S'Universal Cafe'
p2940
aS'2814 19th St, San Francisco, CA, 94110'
p2941
aa(lp2942
S'Upcider'
p2943
aS'1160 Polk St, San Francisco, CA, 94109'
p2944
aa(lp2945
S'Urban Putt'
p2946
aS'1096 S Van Ness Ave, San Francisco, CA, 94110'
p2947
aa(lp2948
S'Urchin Bistrot'
p2949
aS'584 Valencia St, San Francisco, CA, 94110'
p2950
aa(lp2951
S'V Cafe'
p2952
aS'1525 Folsom St, San Francisco, CA, 94107'
p2953
aa(lp2954
S'VIP Coffee & Cakes Shop'
p2955
aS'671 Broadway, San Francisco, CA, 94133'
p2956
aa(lp2957
S'Velvet Room'
p2958
aS'495 Geary St, San Francisco, CA, 94102'
p2959
aa(lp2960
S'Verbena'
p2961
aS'2323 Polk St, San Francisco, CA, 94109'
p2962
aa(lp2963
S'Victory Hall'
p2964
aS'360 Ritch St, San Francisco, CA, 94107'
p2965
aa(lp2966
S'Vinyl'
p2967
aS'359 Divisidero St, San Francisco, CA, 94117'
p2968
aa(lp2969
S'Vitrine'
p2970
aS'125 3rd St, San Francisco, CA, 94103'
p2971
aa(lp2972
S'Voodoo Van'
p2973
aS'Location Varies, San Francisco, CA, 94103'
p2974
aa(lp2975
S'Walzwerk'
p2976
aS'381 S Van Ness Ave, San Francisco, CA, 94103'
p2977
aa(lp2978
S"Wendy's Cheesecake Bakery"
p2979
aS'4942 3rd St, San Francisco, CA, 94124'
p2980
aa(lp2981
S"Wexler's"
p2982
aS'568 Sacramento St, San Francisco, CA, 94111'
p2983
aa(lp2984
S'Whisk On Wheels'
p2985
aS'Location Varies, San Francisco, CA, 94105'
p2986
aa(lp2987
S'Whiz Burgers'
p2988
aS'700 S Van Ness Ave, San Francisco, CA, 94110'
p2989
aa(lp2990
S'Wild Hare'
p2991
aS'2801 California St, San Francisco, CA, 94115'
p2992
aa(lp2993
S'Wing Wings'
p2994
aS'422 Haight St, San Francisco, CA, 94117'
p2995
aa(lp2996
S'Wipeout'
p2997
aS'Pier 39, San Francisco, CA, 94133'
p2998
aa(lp2999
S'Wise Sons Deli'
p3000
aS'3150 24th St, San Francisco, CA, 94110'
p3001
aa(lp3002
S'Wise Sons Deli'
p3003
aS'736 Mission St, San Francisco, CA, 94103'
p3004
aa(lp3005
S"Wolfe's Lunch"
p3006
aS'1220 16th St, San Francisco, CA, 94107'
p3007
aa(lp3008
S'World Wrapps'
p3009
aS'2257 Chestnut St, San Francisco, CA, 94123'
p3010
aa(lp3011
S'World Wrapps'
p3012
aS'293 Bay Shore Blvd, San Francisco, CA, 94124'
p3013
aa(lp3014
S'Your Community Restaurant'
p3015
aS'5149 3rd St, San Francisco, CA, 94124'
p3016
aa(lp3017
S'Z Crepes'
p3018
aS'1700 Owens St, San Francisco, CA, 94158'
p3019
aa(lp3020
S'Z Pizza'
p3021
aS'833 Mission Street, San Francisco, CA, 94103'
p3022
aa(lp3023
S"Zeke's"
p3024
aS'600 3rd St, San Francisco, CA, 94107'
p3025
aa(lp3026
S"Ziggy's Burgers"
p3027
aS'21 Drumm St, San Francisco, CA, 94111'
p3028
aa(lp3029
S'bin 480'
p3030
aS'480 Sutter St, San Francisco, CA, 94108'
p3031
aa(lp3032
S'yoCup'
p3033
aS'685 Market St, San Francisco, CA, 94105'
p3034
aa.